ccopy_reg
_reconstructor
p1
(cnetworkx.classes.digraph
DiGraph
p2
c__builtin__
object
p3
NtRp4
(dp5
S'node'
p6
(dp7
S'http://cssanalytics.wordpress.com'
p8
(dp9
S'cluster'
p10
I0
sS'label'
p11
g8
ssS'http://blogs.sas.com/content/sascom'
p12
(dp13
g10
I1
sg11
g12
ssS'http://statisticalgraphics.blog.com'
p14
(dp15
g11
g14
ssS'http://chartporn.org'
p16
(dp17
g10
I2
sg11
S'http://chartporn.org'
p18
ssS'http://blog.smola.org'
p19
(dp20
g11
S'http://blog.smola.org'
p21
ssS'http://ejfox.com'
p22
(dp23
g11
g22
ssS'http://swedeneurostat.blogspot.com'
p24
(dp25
g10
I21
sg11
g24
ssS'http://psychologicalstatistics.blogspot.com'
p26
(dp27
g10
I6
sg11
g26
ssS'http://blog.sigfpe.com'
p28
(dp29
g10
I7
sg11
g28
ssS'http://threesixty360.wordpress.com'
p30
(dp31
g10
I8
sg11
g30
ssS'http://yaroslavvb.blogspot.com'
p32
(dp33
g10
I9
sg11
g32
ssS'http://www.datavisualization.fr'
p34
(dp35
g10
I10
sg11
g34
ssS'http://www.ask-cato.com'
p36
(dp37
g10
I66
sg11
g36
ssS'http://www.columnfivemedia.com'
p38
(dp39
g10
I11
sg11
g38
ssS'http://chandoo.org/wp'
p40
(dp41
g10
I246
sg11
g40
ssS'http://bigcomputing.blogspot.com'
p42
(dp43
g10
I13
sg11
g42
ssS'http://www.edgebio.com/blog'
p44
(dp45
g10
I81
sg11
g44
ssS'http://allthingsr.blogspot.com'
p46
(dp47
g10
I3
sg11
g46
ssS'http://manyeyes.alphaworks.ibm.com/manyeyes'
p48
(dp49
g11
g48
ssS'http://pbeltrao.blogspot.com'
p50
(dp51
g10
I14
sg11
g50
ssS'http://junkcharts.typepad.com/junk_charts'
p52
(dp53
g11
g52
ssS'http://jess3.com'
p54
(dp55
g11
g54
ssS'http://cra.org/govaffairs/blog'
p56
(dp57
g10
I15
sg11
g56
ssS'http://www.marketingcharts.com'
p58
(dp59
g10
I16
sg11
g58
ssS'http://www.graphoftheweek.org'
p60
(dp61
g10
I17
sg11
g60
ssS'http://peltiertech.com/WordPress'
p62
(dp63
g10
I18
sg11
g62
ssS'http://www.joeparry.com/blog'
p64
(dp65
g10
I19
sg11
S'http://www.joeparry.com/blog'
p66
ssS'http://www.sas-programming.com'
p67
(dp68
g10
I20
sg11
g67
ssS'http://blogs.williams.edu/Morgan'
p69
(dp70
g10
I4
sg11
S'http://blogs.williams.edu/Morgan'
p71
ssS'http://hdr.undp.org'
p72
(dp73
g11
g72
ssS'http://taoshistat.wordpress.com'
p74
(dp75
g10
I23
sg11
S'http://taoshistat.wordpress.com'
p76
ssS'http://biostatmatt.com'
p77
(dp78
g10
I24
sg11
g77
ssS'http://www.datadrivenconsulting.com'
p79
(dp80
g11
g79
ssS'http://www.comscoredatamine.com'
p81
(dp82
g11
g81
ssS'http://scienceblogs.com/digitalbio'
p83
(dp84
g10
I25
sg11
S'http://scienceblogs.com/digitalbio'
p85
ssS'https://gephi.org'
p86
(dp87
g10
I26
sg11
g86
ssS'http://spittoon.23andme.com'
p88
(dp89
g10
I126
sg11
g88
ssS'http://weblog.fortnow.com'
p90
(dp91
g11
g90
ssS'http://liesdamnedliesstatistics.com'
p92
(dp93
g10
I28
sg11
S'http://liesdamnedliesstatistics.com'
p94
ssS'http://ml.typepad.com'
p95
(dp96
g10
I29
sg11
S'http://ml.typepad.com'
p97
ssS'http://www.statista.com'
p98
(dp99
g11
g98
ssS'http://regularize.wordpress.com'
p100
(dp101
g10
I30
sg11
g100
ssS'http://www.infogra.ph'
p102
(dp103
g10
I165
sg11
g102
ssS'http://statosphere.misentropy.com'
p104
(dp105
g11
g104
ssS'http://www.briancragin.com'
p106
(dp107
g10
I32
sg11
g106
ssS'http://blog.revolutionanalytics.com'
p108
(dp109
g10
I33
sg11
g108
ssS'http://ripetungi.com'
p110
(dp111
g11
g110
ssS'http://seriousstats.wordpress.com'
p112
(dp113
g10
I34
sg11
S'http://seriousstats.wordpress.com'
p114
ssS'http://genesearch.wordpress.com'
p115
(dp116
g11
g115
ssS'http://www.usefulcharts.com'
p117
(dp118
g11
g117
ssS'http://www.ngsleaders.org'
p119
(dp120
g11
g119
ssS'http://ngs-brescia.blogspot.it'
p121
(dp122
g11
S'http://ngs-brescia.blogspot.it'
p123
ssS'http://terahertztechnology.blogspot.com'
p124
(dp125
g10
I36
sg11
g124
ssS'http://pixel-shaker.fr'
p126
(dp127
g10
I37
sg11
g126
ssS'http://digitheadslabnotebook.blogspot.com'
p128
(dp129
g10
I38
sg11
g128
ssS'http://www.aliquote.org'
p130
(dp131
g11
g130
ssS'http://www.infographiclove.com'
p132
(dp133
g10
I39
sg11
g132
ssS'http://dataremixed.com'
p134
(dp135
g10
I40
sg11
g134
ssS'http://mathpages.blogspot.com'
p136
(dp137
g10
I230
sg11
g136
ssS'http://infographicjournal.com'
p138
(dp139
g10
I42
sg11
g138
ssS'http://dustingmixon.wordpress.com'
p140
(dp141
g10
I43
sg11
g140
ssS'http://sharpstatistics.co.uk'
p142
(dp143
g10
I44
sg11
g142
ssS'http://www.folioart.co.uk'
p144
(dp145
g11
g144
ssS'http://mfadiagrams.blogspot.com'
p146
(dp147
g10
I46
sg11
g146
ssS'http://www.infojocks.com'
p148
(dp149
g11
g148
ssS'http://underpoint05.wordpress.com'
p150
(dp151
g10
I47
sg11
g150
ssS'http://baselinescenario.com'
p152
(dp153
g10
I48
sg11
g152
ssS'http://www.informationisbeautiful.net'
p154
(dp155
g10
I89
sg11
g154
ssS'http://www.arsmathematica.net'
p156
(dp157
g10
I49
sg11
g156
ssS'http://designnotes.info'
p158
(dp159
g10
I50
sg11
S'http://designnotes.info'
p160
ssS'http://davidmlane.com/hyperstat/index.html'
p161
(dp162
g11
g161
ssS'http://www.niceone.org'
p163
(dp164
g11
g163
ssS'http://ergodicity.net'
p165
(dp166
g10
I51
sg11
g165
ssS'http://espacevide.net/articles'
p167
(dp168
g10
I52
sg11
g167
ssS'http://blogstats.wordpress.com'
p169
(dp170
g10
I53
sg11
S'http://blogstats.wordpress.com'
p171
ssS'http://www.datapointed.net'
p172
(dp173
g10
I54
sg11
g172
ssS'http://www.corrada.com/blog'
p174
(dp175
g10
I55
sg11
g174
ssS'http://www.perceptualedge.com/blog'
p176
(dp177
g10
I56
sg11
g176
ssS'http://www.sankey-diagrams.com'
p178
(dp179
g10
I57
sg11
S'http://www.sankey-diagrams.com'
p180
ssS'http://ivory.idyll.org/blog'
p181
(dp182
g11
S'http://ivory.idyll.org/blog'
p183
ssS'http://mrepidemiology.com'
p184
(dp185
g10
I58
sg11
g184
ssS'http://www.themonkeycage.org'
p186
(dp187
g10
I59
sg11
g186
ssS'http://karpathy.ca/myblog'
p188
(dp189
g11
S'http://karpathy.ca/myblog'
p190
ssS'http://quantivity.wordpress.com'
p191
(dp192
g10
I60
sg11
g191
ssS'http://www.statsmakemecry.com'
p193
(dp194
g11
g193
ssS'http://bps-msc.blogspot.com'
p195
(dp196
g10
I61
sg11
S'http://bps-msc.blogspot.com'
p197
ssS'http://www.juiceanalytics.com/writing'
p198
(dp199
g10
I62
sg11
g198
ssS'http://mysliceofpizza.blogspot.com'
p200
(dp201
g10
I63
sg11
g200
ssS'http://malkarouri.wordpress.com'
p202
(dp203
g10
I64
sg11
g202
ssS'http://www.vizworld.com'
p204
(dp205
g10
I65
sg11
g204
ssS'http://oelemento.wordpress.com'
p206
(dp207
g11
g206
ssS'http://bcbio.wordpress.com'
p208
(dp209
g11
g208
ssS'http://www.terminally-incoherent.com/blog'
p210
(dp211
g11
g210
ssS'http://www.maxgadney.com'
p212
(dp213
g10
I135
sg11
S'http://www.maxgadney.com'
p214
ssS'http://nuit-blanche.blogspot.com'
p215
(dp216
g11
g215
ssS'http://crossedstreams.com/wordpress'
p217
(dp218
g11
g217
ssS'http://kbroman.wordpress.com'
p219
(dp220
g11
g219
ssS'http://www.overcomingbias.com'
p221
(dp222
g11
g221
ssS'http://learnandteachstatistics.wordpress.com'
p223
(dp224
g11
g223
ssS'http://www.neoformix.com'
p225
(dp226
g11
g225
ssS'http://web.ece.rice.edu/richb'
p227
(dp228
g10
I68
sg11
S'http://web.ece.rice.edu/richb'
p229
ssS'http://joelcadwell.blogspot.com'
p230
(dp231
g10
I69
sg11
g230
ssS'http://blogs.sas.com/blognormal'
p232
(dp233
g10
I70
sg11
g232
ssS'http://terrytao.wordpress.com'
p234
(dp235
g10
I71
sg11
g234
ssS'http://mirror2image.wordpress.com'
p236
(dp237
g10
I72
sg11
g236
ssS'http://onertipaday.blogspot.com'
p238
(dp239
g10
I73
sg11
g238
ssS'http://dailytekk.com'
p240
(dp241
g10
I74
sg11
g240
ssS'http://www.computersdontsee.net'
p242
(dp243
g10
I255
sg11
g242
ssS'http://romainfrancois.blog.free.fr'
p244
(dp245
g10
I75
sg11
S'http://romainfrancois.blog.free.fr'
p246
ssS'http://mybiasedcoin.blogspot.com'
p247
(dp248
g10
I45
sg11
S'http://mybiasedcoin.blogspot.com'
p249
ssS'http://brenocon.com/blog'
p250
(dp251
g10
I77
sg11
g250
ssS'http://blog.infochimps.com'
p252
(dp253
g11
g252
ssS'http://infostructuralist.wordpress.com'
p254
(dp255
g10
I78
sg11
g254
ssS'http://webmaths.wordpress.com'
p256
(dp257
g10
I79
sg11
g256
ssS'http://wmbriggs.com/blog'
p258
(dp259
g11
g258
ssS'http://mrvacuumtube.blogspot.com'
p260
(dp261
g10
I80
sg11
g260
ssS'http://www.andypope.info/index.htm'
p262
(dp263
g11
S'http://www.andypope.info/index.htm'
p264
ssS'http://thousandfold.net/cz'
p265
(dp266
g10
I82
sg11
g265
ssS'http://blogs.sas.com/sasdummy'
p267
(dp268
g10
I203
sg11
g267
ssS'http://allendowney.blogspot.com'
p269
(dp270
g10
I83
sg11
S'http://allendowney.blogspot.com'
p271
ssS'http://www.data-mining-blog.com'
p272
(dp273
g10
I84
sg11
g272
ssS'http://gowers.wordpress.com'
p274
(dp275
g10
I85
sg11
g274
ssS'http://www.staubman.com/index.php'
p276
(dp277
g11
g276
ssS'http://nuit-blanche.blogspot.it'
p278
(dp279
g10
I86
sg11
S'http://nuit-blanche.blogspot.it'
p280
ssS'http://rhodestales.com'
p281
(dp282
g11
g281
ssS'http://addictedtor.free.fr/graphiques'
p283
(dp284
g11
g283
ssS'http://timsalimans.com'
p285
(dp286
g10
I87
sg11
g285
ssS'http://geekmusfir.wordpress.com'
p287
(dp288
g10
I88
sg11
g287
ssS'http://guiuestc.blogspot.com'
p289
(dp290
g11
g289
ssS'http://educationandstatistics.blogspot.com'
p291
(dp292
g10
I162
sg11
S'http://educationandstatistics.blogspot.com'
p293
ssS'http://infographicsite.com'
p294
(dp295
g11
g294
ssS'http://scienceandreason.blogspot.com'
p296
(dp297
g10
I90
sg11
g296
ssS'http://www.r-statistics.com'
p298
(dp299
g10
I91
sg11
S'http://www.r-statistics.com'
p300
ssS'http://davidakenny.net'
p301
(dp302
g11
g301
ssS'http://neomam.com'
p303
(dp304
g10
I178
sg11
g303
ssS'http://www.infographicsshowcase.com'
p305
(dp306
g10
I93
sg11
g305
ssS'http://errorstatistics.com'
p307
(dp308
g11
g307
ssS'http://www.theworldasflatland.net'
p309
(dp310
g11
g309
ssS'http://ongenes.blogspot.com'
p311
(dp312
g10
I200
sg11
g311
ssS'http://www.statsmakemecry.com/smmctheblog'
p313
(dp314
g10
I95
sg11
g313
ssS'http://davegiles.blogspot.com'
p315
(dp316
g11
S'http://davegiles.blogspot.com'
p317
ssS'http://www.geneticsandhealth.com'
p318
(dp319
g11
g318
ssS'http://www.visualcomplexity.com/vc'
p320
(dp321
g11
g320
ssS'http://rtutorialseries.blogspot.com'
p322
(dp323
g10
I96
sg11
g322
ssS'http://fellinlovewithdata.com'
p324
(dp325
g10
I97
sg11
g324
ssS'http://orgtheory.wordpress.com'
p326
(dp327
g10
I98
sg11
g326
ssS'http://freakonometrics.blog.free.fr'
p328
(dp329
g11
g328
ssS'http://thelogcabin.wordpress.com'
p330
(dp331
g10
I99
sg11
S'http://thelogcabin.wordpress.com'
p332
ssS'http://errorstatistics.blogspot.com'
p333
(dp334
g10
I100
sg11
g333
ssS'http://hashimotolaboratory.blogspot.com'
p335
(dp336
g10
I101
sg11
g335
ssS'http://omicsomics.blogspot.com'
p337
(dp338
g10
I102
sg11
S'http://omicsomics.blogspot.com'
p339
ssS'http://ngs-expert.com'
p340
(dp341
g10
I103
sg11
g340
ssS'http://www.analyticbridge.com'
p342
(dp343
g11
g342
ssS'http://r-bloggers.com'
p344
(dp345
g11
g344
ssS'http://blog.computationalcomplexity.org'
p346
(dp347
g10
I104
sg11
S'http://blog.computationalcomplexity.org'
p348
ssS'http://daily-scala.blogspot.com'
p349
(dp350
g10
I105
sg11
g349
ssS'http://mygenomix.wordpress.com'
p351
(dp352
g10
I106
sg11
g351
ssS'http://communicationnation.blogspot.com'
p353
(dp354
g10
I107
sg11
g353
ssS'http://bergmanlab.smith.man.ac.uk/?page_id=45'
p355
(dp356
g10
I108
sg11
g355
ssS'http://www.mii.ucla.edu/causality'
p357
(dp358
g10
I109
sg11
S'http://www.mii.ucla.edu/causality'
p359
ssS'http://visualcomplexity.com'
p360
(dp361
g11
g360
ssS'http://blog.data-miners.com'
p362
(dp363
g10
I110
sg11
g362
ssS'http://timeplots.com'
p364
(dp365
g11
g364
ssS'http://blog.goldenhelix.com'
p366
(dp367
g10
I111
sg11
S'http://blog.goldenhelix.com'
p368
ssS'http://lamages.blogspot.com'
p369
(dp370
g10
I112
sg11
S'http://lamages.blogspot.com'
p371
ssS'http://blogperso.univ-rennes1.fr/arthur.charpentier'
p372
(dp373
g10
I113
sg11
g372
ssS'http://messymatters.com'
p374
(dp375
g11
g374
ssS'http://rna-seqblog.com'
p376
(dp377
g10
I114
sg11
g376
ssS'http://blogs.sas.com/content/iml'
p378
(dp379
g10
I115
sg11
S'http://blogs.sas.com/content/iml'
p380
ssS'http://tierneylab.blogs.nytimes.com'
p381
(dp382
g10
I116
sg11
S'http://tierneylab.blogs.nytimes.com'
p383
ssS'http://www.infogr8.com'
p384
(dp385
g11
g384
ssS'http://matlabdatamining.blogspot.com'
p386
(dp387
g10
I117
sg11
g386
ssS'http://bayesianbiologist.com'
p388
(dp389
g10
I118
sg11
g388
ssS'http://datamining.typepad.com'
p390
(dp391
g11
g390
ssS'http://thewhyaxis.info'
p392
(dp393
g11
g392
ssS'http://marciomarim.com/blog'
p394
(dp395
g10
I22
sg11
g394
ssS'http://www.walkingrandomly.com'
p396
(dp397
g10
I119
sg11
S'http://www.walkingrandomly.com'
p398
ssS'http://infographicworld.com'
p399
(dp400
g10
I120
sg11
g399
ssS'http://mathblogging.wordpress.com'
p401
(dp402
g10
I121
sg11
g401
ssS'http://codeandculture.wordpress.com'
p403
(dp404
g10
I122
sg11
S'http://codeandculture.wordpress.com'
p405
ssS'http://secretsofconsulting.blogspot.com'
p406
(dp407
g10
I123
sg11
g406
ssS'http://probweb.berkeley.edu'
p408
(dp409
g11
g408
ssS'http://compgen.blogspot.com'
p410
(dp411
g10
I124
sg11
g410
ssS'http://www.rdatamining.com'
p412
(dp413
g11
g412
ssS'http://www.swissinfographics.com'
p414
(dp415
g10
I125
sg11
g414
ssS'http://flxlexblog.wordpress.com'
p416
(dp417
g10
I27
sg11
g416
ssS'http://blog.openhelix.eu'
p418
(dp419
g10
I127
sg11
g418
ssS'http://blogs.mbs.edu/fishing-in-the-bay'
p420
(dp421
g10
I128
sg11
S'http://blogs.mbs.edu/fishing-in-the-bay'
p422
ssS'http://dahuasky.wordpress.com'
p423
(dp424
g11
S'http://dahuasky.wordpress.com'
p425
ssS'http://ubseblz.wordpress.com'
p426
(dp427
g10
I129
sg11
g426
ssS'http://blog.lupi-software.com'
p428
(dp429
g10
I130
sg11
g428
ssS'http://strangemaps.wordpress.com'
p430
(dp431
g11
S'http://strangemaps.wordpress.com'
p432
ssS'http://www.genomesunzipped.org'
p433
(dp434
g10
I131
sg11
g433
ssS'http://bickson.blogspot.com'
p435
(dp436
g10
I132
sg11
g435
ssS'http://doingbayesiandataanalysis.blogspot.com'
p437
(dp438
g10
I133
sg11
g437
ssS'http://www.freakonomics.com/blog'
p439
(dp440
g10
I134
sg11
g439
ssS'http://www.giseliramos.com.br/blog'
p441
(dp442
g11
g441
ssS'http://statswithcats.wordpress.com'
p443
(dp444
g10
I136
sg11
S'http://statswithcats.wordpress.com'
p445
ssS'http://faculty.chass.ncsu.edu/garson/PA765/statnote.htm'
p446
(dp447
g11
g446
ssS'http://highlyscalable.wordpress.com'
p448
(dp449
g10
I138
sg11
g448
ssS'http://trinkersstatsstuff.wordpress.com'
p450
(dp451
g10
I139
sg11
g450
ssS'http://xianblog.wordpress.com'
p452
(dp453
g10
I140
sg11
S'http://xianblog.wordpress.com'
p454
ssS'http://cscs.umich.edu/~crshalizi/weblog'
p455
(dp456
g11
g455
ssS'http://blogs.sas.com/content/sasdummy'
p457
(dp458
g11
g457
ssS'http://darrenjw.wordpress.com'
p459
(dp460
g10
I141
sg11
g459
ssS'http://pathogenomics.bham.ac.uk/blog'
p461
(dp462
g11
g461
ssS'http://www.inside-r.org'
p463
(dp464
g11
g463
ssS'http://mat.gsia.cmu.edu/blog'
p465
(dp466
g11
g465
ssS'http://InfographicDesign.org'
p467
(dp468
g10
I142
sg11
g467
ssS'http://periscopic.com'
p469
(dp470
g11
g469
ssS'http://blog.360.yahoo.com/blog-fjmXwIAjcKjZxsEcaDFYdQ--'
p471
(dp472
g11
g471
ssS'http://googlepolitics.blogspot.com'
p473
(dp474
g10
I143
sg11
g473
ssS'http://www.cnblogs.com/jerrylead'
p475
(dp476
g10
I144
sg11
S'http://www.cnblogs.com/jerrylead'
p477
ssS'http://blogs.reuters.com/felix-salmon'
p478
(dp479
g10
I213
sg11
g478
ssS'http://infographiq.com'
p480
(dp481
g10
I146
sg11
g480
ssS'http://blog.gillerinvestments.com'
p482
(dp483
g11
g482
ssS'http://fungalgenomes.org/blog'
p484
(dp485
g10
I147
sg11
g484
ssS'http://blog.rguha.net'
p486
(dp487
g10
I148
sg11
g486
ssS'http://unapologetic.wordpress.com'
p488
(dp489
g10
I149
sg11
g488
ssS'http://blogs.forrester.com/market_insights'
p490
(dp491
g11
g490
ssS'http://www.politigenomics.com'
p492
(dp493
g10
I150
sg11
S'http://www.politigenomics.com'
p494
ssS'http://datamining.typepad.com/data_mining'
p495
(dp496
g11
g495
ssS'http://statisfaction.wordpress.com'
p497
(dp498
g10
I151
sg11
S'http://statisfaction.wordpress.com'
p499
ssS'http://seqonomics.blogspot.it'
p500
(dp501
g10
I152
sg11
g500
ssS'http://djalil.chafai.net/blog'
p502
(dp503
g10
I153
sg11
S'http://djalil.chafai.net/blog'
p504
ssS'http://analytics4business.wordpress.com'
p505
(dp506
g10
I137
sg11
g505
ssS'http://www.visualcomplexity.com/vc/blog'
p507
(dp508
g10
I154
sg11
S'http://www.visualcomplexity.com/vc/blog'
p509
ssS'http://martynplummer.wordpress.com'
p510
(dp511
g10
I155
sg11
g510
ssS'http://quomodocumque.wordpress.com'
p512
(dp513
g10
I199
sg11
g512
ssS'http://newsaesthetics.tumblr.com'
p514
(dp515
g10
I157
sg11
g514
ssS'http://junkcharts.typepad.com'
p516
(dp517
g10
I158
sg11
g516
ssS'http://dirk.eddelbuettel.com'
p518
(dp519
g11
S'http://dirk.eddelbuettel.com'
p520
ssS'http://blogs.wsj.com/numbersguy'
p521
(dp522
g10
I159
sg11
S'http://blogs.wsj.com/numbersguy'
p523
ssS'http://www.statsblogs.com'
p524
(dp525
g10
I160
sg11
g524
ssS'http://www.thegeneticgenealogist.com'
p526
(dp527
g10
I161
sg11
g526
ssS'http://www.portfolioprobe.com/blog'
p528
(dp529
g10
I5
sg11
g528
ssS'http://eagereyes.org'
p530
(dp531
g10
I163
sg11
g530
ssS'http://www.serialmapper.com'
p532
(dp533
g10
I164
sg11
g532
ssS'http://timmanns.blogspot.com'
p534
(dp535
g10
I31
sg11
g534
ssS'http://thegenesherpa.blogspot.com'
p536
(dp537
g11
g536
ssS'http://iitstatwizards.blogspot.com'
p538
(dp539
g11
g538
ssS'http://stochastix.wordpress.com'
p540
(dp541
g10
I167
sg11
S'http://stochastix.wordpress.com'
p542
ssS'http://sas-and-r.blogspot.com'
p543
(dp544
g10
I168
sg11
S'http://sas-and-r.blogspot.com'
p545
ssS'http://visualoop.com'
p546
(dp547
g11
g546
ssS'http://www.bestinfographics.co.uk'
p548
(dp549
g10
I169
sg11
g548
ssS'http://freakonometrics.blog.free.fr/index.php'
p550
(dp551
g10
I170
sg11
g550
ssS'http://utvbloggen.se'
p552
(dp553
g10
I171
sg11
g552
ssS'http://hao1990.blogspot.com'
p554
(dp555
g10
I287
sg11
S'http://hao1990.blogspot.com'
p556
ssS'http://nowsourcing.com'
p557
(dp558
g10
I173
sg11
g557
ssS'http://using-r-project.blogspot.com'
p559
(dp560
g10
I174
sg11
g559
ssS'http://realizationsinbiostatistics.blogspot.com'
p561
(dp562
g10
I175
sg11
S'http://realizationsinbiostatistics.blogspot.com'
p563
ssS'http://www.quantumforest.com'
p564
(dp565
g10
I176
sg11
S'http://www.quantumforest.com'
p566
ssS'http://lovestats.wordpress.com'
p567
(dp568
g10
I177
sg11
S'http://lovestats.wordpress.com'
p569
ssS'http://radar.oreilly.com'
p570
(dp571
g10
I92
sg11
g570
ssS'http://www.johnmyleswhite.com'
p572
(dp573
g10
I179
sg11
S'http://www.johnmyleswhite.com'
p574
ssS'http://www.theusrus.de/blog'
p575
(dp576
g10
I180
sg11
S'http://www.theusrus.de/blog'
p577
ssS'http://www.straightstatistics.org'
p578
(dp579
g11
g578
ssS'http://www.pandasthumb.org'
p580
(dp581
g11
g580
ssS'http://nextgenseq.blogspot.com'
p582
(dp583
g10
I182
sg11
g582
ssS'http://haldanessieve.org'
p584
(dp585
g10
I183
sg11
g584
ssS'http://understandinguncertainty.org'
p586
(dp587
g10
I184
sg11
S'http://understandinguncertainty.org'
p588
ssS'http://laurent-duval.blogspot.com'
p589
(dp590
g10
I185
sg11
g589
ssS'http://suksmono.wordpress.com'
p591
(dp592
g11
g591
ssS'http://www.joelertola.com/grfx/index.html'
p593
(dp594
g11
g593
ssS'http://brainstat.blogspot.com'
p595
(dp596
g10
I186
sg11
S'http://brainstat.blogspot.com'
p597
ssS'http://blog.diegovalle.net'
p598
(dp599
g10
I187
sg11
g598
ssS'http://www.westwood.edu/programs/school-of-design/visual-communications'
p600
(dp601
g11
g600
ssS'http://www.r-chart.com'
p602
(dp603
g10
I188
sg11
g602
ssS'http://myreckonings.com/wordpress'
p604
(dp605
g10
I189
sg11
g604
ssS'http://www.cscs.umich.edu/~crshalizi/weblog'
p606
(dp607
g11
g606
ssS'http://nsaunders.wordpress.com'
p608
(dp609
g10
I191
sg11
g608
ssS'http://www.neurevolution.net'
p610
(dp611
g10
I192
sg11
g610
ssS'http://hunch.net'
p612
(dp613
g10
I193
sg11
S'http://hunch.net'
p614
ssS'http://www.statschat.org.nz'
p615
(dp616
g10
I194
sg11
S'http://www.statschat.org.nz'
p617
ssS'http://thegenomefactory.blogspot.com.au'
p618
(dp619
g10
I195
sg11
g618
ssS'http://spectralholes.blogspot.com'
p620
(dp621
g10
I196
sg11
g620
ssS'http://fivethirtyeight.blogs.nytimes.com'
p622
(dp623
g10
I197
sg11
g622
ssS'http://hackmap.blogspot.com'
p624
(dp625
g10
I198
sg11
g624
ssS'http://lousodrome.net/blog'
p626
(dp627
g11
g626
ssS'http://timelyportfolio.blogspot.com'
p628
(dp629
g10
I156
sg11
g628
ssS'http://electronsandholes.blogspot.com'
p630
(dp631
g10
I94
sg11
g630
ssS'http://statsblogs.com'
p632
(dp633
g11
g632
ssS'http://robinryder.wordpress.com'
p634
(dp635
g10
I201
sg11
g634
ssS'http://permut.wordpress.com'
p636
(dp637
g10
I202
sg11
S'http://permut.wordpress.com'
p638
ssS'http://news.bbc.co.uk/1/hi/magazine/7883619.stm'
p639
(dp640
g11
g639
ssS'http://www.InfoMonkeys.com'
p641
(dp642
g11
g641
ssS'http://www.statisticsblog.com'
p643
(dp644
g10
I204
sg11
g643
ssS'http://migration.wordpress.com'
p645
(dp646
g10
I205
sg11
g645
ssS'http://www.iq.harvard.edu/blog/sss'
p647
(dp648
g10
I206
sg11
g647
ssS'https://wiki.hpcc.msu.edu/display/~johnj@msu.edu/'
p649
(dp650
g11
g649
ssS'http://fabricebaudoin.wordpress.com'
p651
(dp652
g10
I207
sg11
S'http://fabricebaudoin.wordpress.com'
p653
ssS'http://www.jamesandthegiantcorn.com'
p654
(dp655
g10
I208
sg11
g654
ssS'http://core-genomics.blogspot.com'
p656
(dp657
g10
I209
sg11
g656
ssS'http://rbaltman.wordpress.com'
p658
(dp659
g10
I210
sg11
S'http://rbaltman.wordpress.com'
p660
ssS'http://stataccess.blogspot.com'
p661
(dp662
g10
I211
sg11
g661
ssS'http://blogs.forbes.com/naomirobbins'
p663
(dp664
g10
I212
sg11
g663
ssS'http://www.wallstats.com'
p665
(dp666
g11
g665
ssS'http://fseoane.net/blog'
p667
(dp668
g11
S'http://fseoane.net/blog'
p669
ssS'http://www.drewconway.com/zia'
p670
(dp671
g10
I145
sg11
g670
ssS'http://systematicinvestor.wordpress.com'
p672
(dp673
g10
I328
sg11
g672
ssS'http://www.dataminingblog.com'
p674
(dp675
g11
g674
ssS'http://sayitvisually.com'
p676
(dp677
g11
g676
ssS'http://www.statalgo.com'
p678
(dp679
g10
I214
sg11
g678
ssS'http://www.decisionsciencenews.com'
p680
(dp681
g10
I215
sg11
S'http://www.decisionsciencenews.com'
p682
ssS'http://ongenetics.blogspot.com'
p683
(dp684
g10
I216
sg11
g683
ssS'http://www.chartsmapsdiagrams.com'
p685
(dp686
g11
g685
ssS'http://rsnippets.blogspot.com'
p687
(dp688
g10
I217
sg11
g687
ssS'http://bpchesney.org'
p689
(dp690
g10
I218
sg11
g689
ssS'http://two-n.com'
p691
(dp692
g11
g691
ssS'http://christophergandrud.blogspot.com'
p693
(dp694
g10
I219
sg11
g693
ssS'http://tm.durusau.net'
p695
(dp696
g10
I220
sg11
g695
ssS'http://bogumilkaminski.home.pl/index.php'
p697
(dp698
g11
g697
ssS'http://brainchronicle.blogspot.com'
p699
(dp700
g10
I221
sg11
g699
ssS'http://simplecomplexity.net'
p701
(dp702
g11
g701
ssS'http://www.databison.com'
p703
(dp704
g10
I222
sg11
g703
ssS'http://infographicpics.com'
p705
(dp706
g10
I356
sg11
g705
ssS'http://r4stats.com'
p707
(dp708
g10
I223
sg11
g707
ssS'http://newswithnumbers.com'
p709
(dp710
g10
I224
sg11
g709
ssS'http://datajournalists.org'
p711
(dp712
g11
S'http://datajournalists.org'
p713
ssS'http://simplystatistics.org'
p714
(dp715
g11
S'http://simplystatistics.org'
p716
ssS'http://gilkalai.wordpress.com'
p717
(dp718
g10
I225
sg11
S'http://gilkalai.wordpress.com'
p719
ssS'http://www.97thfloor.com/social-media/infographics'
p720
(dp721
g11
g720
ssS'http://www.johndcook.com/blog'
p722
(dp723
g10
I226
sg11
S'http://www.johndcook.com/blog'
p724
ssS'http://www.linkedin.com/in/keithrobison'
p725
(dp726
g11
g725
ssS'http://www.funnelinc.com'
p727
(dp728
g11
g727
ssS'http://scienceinthesands.blogspot.com'
p729
(dp730
g10
I227
sg11
g729
ssS'http://normaldeviate.wordpress.com'
p731
(dp732
g11
S'http://normaldeviate.wordpress.com'
p733
ssS'http://abbottanalytics.blogspot.com'
p734
(dp735
g10
I228
sg11
S'http://abbottanalytics.blogspot.com'
p736
ssS'http://opticalimaging.org/OISblog'
p737
(dp738
g10
I229
sg11
g737
ssS'http://www.johngrimwade.com'
p739
(dp740
g11
g739
ssS'http://jermdemo.blogspot.com'
p741
(dp742
g10
I41
sg11
g741
ssS'http://to-cs.blog.sohu.com'
p743
(dp744
g10
I231
sg11
g743
ssS'http://visualmethods.blogspot.com'
p745
(dp746
g11
S'http://visualmethods.blogspot.com'
p747
ssS'http://robjhyndman.com'
p748
(dp749
g10
I232
sg11
S'http://robjhyndman.com'
p750
ssS'http://lewko.wordpress.com'
p751
(dp752
g10
I233
sg11
S'http://lewko.wordpress.com'
p753
ssS'http://nicolasrapp.com'
p754
(dp755
g10
I234
sg11
g754
ssS'http://www.flowingdata.com'
p756
(dp757
g11
S'http://www.flowingdata.com'
p758
ssS'http://www.win-vector.com/blog'
p759
(dp760
g10
I278
sg11
g759
ssS'http://harvestimaging.com/blog'
p761
(dp762
g10
I235
sg11
g761
ssS'http://gettinggeneticsdone.blogspot.com'
p763
(dp764
g10
I236
sg11
S'http://gettinggeneticsdone.blogspot.com'
p765
ssS'http://brainwindows.wordpress.com'
p766
(dp767
g10
I237
sg11
g766
ssS'http://www.cerebralmastication.com'
p768
(dp769
g10
I238
sg11
g768
ssS'http://blog.informationgeometry.org'
p770
(dp771
g10
I166
sg11
g770
ssS'http://blog.malde.org'
p772
(dp773
g11
g772
ssS'http://ftalphaville.ft.com'
p774
(dp775
g11
g774
ssS'http://www.smartdraw.com'
p776
(dp777
g11
g776
ssS'http://my.biotechlife.net'
p778
(dp779
g10
I239
sg11
g778
ssS'http://planetr.stderr.org'
p780
(dp781
g11
g780
ssS'http://www.cros-portal.eu/frontpage'
p782
(dp783
g11
g782
ssS'http://www.kimberleycrofts.com'
p784
(dp785
g11
g784
ssS'http://www.massgenomics.org'
p786
(dp787
g10
I240
sg11
g786
ssS'http://blog.i2pi.com'
p788
(dp789
g11
g788
ssS'http://www.braintapper.com'
p790
(dp791
g11
g790
ssS'http://www.sciencebasedmedicine.org'
p792
(dp793
g10
I241
sg11
g792
ssS'http://www.andrewgelman.com/blog'
p794
(dp795
g11
g794
ssS'http://dataminingblog.com'
p796
(dp797
g10
I242
sg11
g796
ssS'http://update.snd.org'
p798
(dp799
g11
g798
ssS'http://societytosupressthecorrelationcoefficient.wordpress.com'
p800
(dp801
g10
I243
sg11
S'http://societytosupressthecorrelationcoefficient.wordpress.com'
p802
ssS'http://11011110.livejournal.com'
p803
(dp804
g11
g803
ssS'http://www.homolog.us/blogs'
p805
(dp806
g10
I244
sg11
S'http://www.homolog.us/blogs'
p807
ssS'http://blog.echen.me'
p808
(dp809
g11
S'http://blog.echen.me'
p810
ssS'http://rbresearch.wordpress.com'
p811
(dp812
g10
I245
sg11
g811
ssS'http://complexdiagrams.com'
p813
(dp814
g10
I12
sg11
g813
ssS'http://www.daniel-lemire.com'
p815
(dp816
g11
g815
ssS'http://www.medbioworld.com/postgenomics_blog'
p817
(dp818
g11
g817
ssS'http://www.r-bloggers.com'
p819
(dp820
g10
I247
sg11
g819
ssS'http://gianlubaio.blogspot.com'
p821
(dp822
g10
I248
sg11
g821
ssS'http://pleiotropy.fieldofscience.com'
p823
(dp824
g10
I249
sg11
g823
ssS'http://observationalepidemiology.blogspot.com'
p825
(dp826
g10
I250
sg11
S'http://observationalepidemiology.blogspot.com'
p827
ssS'http://people.umass.edu/mduarte/Main/Main.html'
p828
(dp829
g11
g828
ssS'http://www.mikesudal.com'
p830
(dp831
g10
I251
sg11
g830
ssS'http://infonewt.com'
p832
(dp833
g11
g832
ssS'http://www.andrewgelman.com'
p834
(dp835
g10
I254
sg11
S'http://www.andrewgelman.com'
p836
ssS'http://godplaysdice.blogspot.com'
p837
(dp838
g11
g837
ssS'http://lemire.me/blog'
p839
(dp840
g10
I256
sg11
g839
ssS'http://botthoughts.wordpress.com'
p841
(dp842
g10
I67
sg11
g841
ssS'http://michaelnielsen.org/blog'
p843
(dp844
g10
I257
sg11
g843
ssS'http://chartsnthings.tumblr.com'
p845
(dp846
g10
I258
sg11
S'http://chartsnthings.tumblr.com'
p847
ssS'http://zoonek2.free.fr/UNIX/48_R/all.html'
p848
(dp849
g11
g848
ssS'http://heuristically.wordpress.com'
p850
(dp851
g10
I259
sg11
S'http://heuristically.wordpress.com'
p852
ssS'https://wiki.hpcc.msu.edu/display/~johnj@msu.edu'
p853
(dp854
g11
g853
ssS'http://www.coolinfographics.com'
p855
(dp856
g10
I260
sg11
S'http://www.coolinfographics.com'
p857
ssS'http://ffctn.com'
p858
(dp859
g11
g858
ssS'http://gottwurfelt.wordpress.com'
p860
(dp861
g10
I261
sg11
g860
ssS'http://marchonscience.blogspot.com'
p862
(dp863
g10
I262
sg11
g862
ssS'http://damarisbsarria.blogspot.com'
p864
(dp865
g10
I263
sg11
g864
ssS'http://substratumseries.com'
p866
(dp867
g10
I264
sg11
g866
ssS'http://alittleknowledge.wordpress.com'
p868
(dp869
g11
g868
ssS'http://statmethods.wordpress.com'
p870
(dp871
g10
I265
sg11
S'http://statmethods.wordpress.com'
p872
ssS'http://lkozma.net/blog'
p873
(dp874
g10
I266
sg11
g873
ssS'http://citizen-statistician.org'
p875
(dp876
g10
I267
sg11
S'http://citizen-statistician.org'
p877
ssS'http://dailyinfographic.com'
p878
(dp879
g10
I268
sg11
g878
ssS'http://www.datagenetics.com/blog.html'
p880
(dp881
g11
S'http://www.datagenetics.com/blog.html'
p882
ssS'http://xplane.com'
p883
(dp884
g11
g883
ssS'http://www.programmingr.com/taxonomy/term/14/0'
p885
(dp886
g11
g885
ssS'http://viksalgorithms.blogspot.com'
p887
(dp888
g10
I269
sg11
g887
ssS'http://hackaday.com'
p889
(dp890
g10
I270
sg11
g889
ssS'http://trinkerrstuff.wordpress.com'
p891
(dp892
g10
I271
sg11
S'http://trinkerrstuff.wordpress.com'
p893
ssS'http://www.hilarymason.com'
p894
(dp895
g10
I272
sg11
g894
ssS'http://blogs.abcnews.com/thenumbers'
p896
(dp897
g10
I273
sg11
S'http://blogs.abcnews.com/thenumbers'
p898
ssS'http://machinevision4users.blogspot.com'
p899
(dp900
g10
I274
sg11
g899
ssS'http://www.cscs.lsa.umich.edu/~crshalizi/weblog'
p901
(dp902
g11
g901
ssS'http://www.thejuliagroup.com/blog'
p903
(dp904
g10
I275
sg11
S'http://www.thejuliagroup.com/blog'
p905
ssS'http://yetaspblog.wordpress.com'
p906
(dp907
g10
I276
sg11
g906
ssS'http://www.clcngs.com'
p908
(dp909
g11
g908
ssS'http://teachingcollegemath.com'
p910
(dp911
g10
I277
sg11
g910
ssS'http://media.aau.dk/CRISSP'
p912
(dp913
g11
g912
ssS'http://infographiclabs.com'
p914
(dp915
g10
I279
sg11
g914
ssS'http://statbandit.wordpress.com'
p916
(dp917
g10
I280
sg11
g916
ssS'http://polylogblog.wordpress.com'
p918
(dp919
g10
I281
sg11
S'http://polylogblog.wordpress.com'
p920
ssS'http://infosthetics.com'
p921
(dp922
g11
S'http://infosthetics.com'
p923
ssS'http://honglangwang.wordpress.com'
p924
(dp925
g10
I282
sg11
g924
ssS'http://quantombone.blogspot.com'
p926
(dp927
g10
I283
sg11
g926
ssS'http://blog.visual.ly'
p928
(dp929
g11
g928
ssS'http://chrisladroue.com'
p930
(dp931
g11
S'http://chrisladroue.com'
p932
ssS'http://perceptualedge.com/blog'
p933
(dp934
g11
g933
ssS'http://www.analysisfactor.com'
p935
(dp936
g11
g935
ssS'http://mark.reid.name/iem'
p937
(dp938
g11
g937
ssS'http://www.seewhatyoumean.blogspot.com'
p939
(dp940
g10
I252
sg11
g939
ssS'http://micheleguieu.blogspot.com'
p941
(dp942
g10
I284
sg11
g941
ssS'http://guidetodatamining.com'
p943
(dp944
g10
I286
sg11
g943
ssS'http://www.mathlesstraveled.com'
p945
(dp946
g10
I172
sg11
g945
ssS'http://pleasemakeanote.blogspot.com'
p947
(dp948
g10
I285
sg11
g947
ssS'http://cooldata.wordpress.com'
p949
(dp950
g10
I288
sg11
S'http://cooldata.wordpress.com'
p951
ssS'http://www.2physics.com'
p952
(dp953
g10
I289
sg11
g952
ssS'http://yihui.name/en'
p954
(dp955
g11
S'http://yihui.name/en'
p956
ssS'http://qchu.wordpress.com'
p957
(dp958
g10
I290
sg11
g957
ssS'http://ggorjan.blogspot.com'
p959
(dp960
g10
I291
sg11
g959
ssS'http://statisticsforum.wordpress.com'
p961
(dp962
g11
S'http://statisticsforum.wordpress.com'
p963
ssS'http://blog.stodden.net'
p964
(dp965
g10
I293
sg11
g964
ssS'http://physical-thought.blogspot.com'
p966
(dp967
g11
g966
ssS'http://serialconsign.com'
p968
(dp969
g11
g968
ssS'http://blog.fejes.ca'
p970
(dp971
g10
I294
sg11
g970
ssS'http://www.globalpolicyjournal.com'
p972
(dp973
g11
g972
ssS'http://rjlipton.wordpress.com'
p974
(dp975
g10
I295
sg11
g974
ssS'http://www.kinecthacks.net'
p976
(dp977
g10
I296
sg11
g976
ssS'http://www.technologyreview.com/stream'
p978
(dp979
g11
g978
ssS'http://infographicsnews.blogspot.com'
p980
(dp981
g10
I337
sg11
g980
ssS'http://bpr3.org/?page_id=56'
p982
(dp983
g11
g982
ssS'/'
(dp984
g11
S'/'
ssS'http://www.fluxvfx.com/shop/infographics'
p985
(dp986
g11
g985
ssS'http://phylogenomics.blogspot.com'
p987
(dp988
g10
I297
sg11
g987
ssS'http://iitstatwizards.weebly.com'
p989
(dp990
g11
g989
ssS'http://minethatdata.blogspot.com'
p991
(dp992
g11
g991
ssS'http://danallenby.wordpress.com'
p993
(dp994
g10
I298
sg11
S'http://danallenby.wordpress.com'
p995
ssS'http://www.willowgarage.com/blog'
p996
(dp997
g11
g996
ssS'http://yall1.blogs.rice.edu'
p998
(dp999
g11
g998
ssS'http://www.theanalysisfactor.com'
p1000
(dp1001
g10
I299
sg11
S'http://www.theanalysisfactor.com'
p1002
ssS'http://nuit-blanche.wordpress.com'
p1003
(dp1004
g11
g1003
ssS'http://shom83.blogspot.com'
p1005
(dp1006
g10
I300
sg11
g1005
ssS'http://www.pitchinteractive.com'
p1007
(dp1008
g11
g1007
ssS'http://www.rensenieuwenhuis.nl'
p1009
(dp1010
g10
I301
sg11
g1009
ssS'http://blog.oddhead.com'
p1011
(dp1012
g10
I302
sg11
g1011
ssS'http://www.visualnews.com/category/infographics'
p1013
(dp1014
g10
I303
sg11
g1013
ssS'http://www.badscience.net'
p1015
(dp1016
g10
I304
sg11
g1015
ssS'http://igraphicsexplained.blogspot.com'
p1017
(dp1018
g10
I305
sg11
g1017
ssS'http://www.excelcharts.com/blog'
p1019
(dp1020
g10
I307
sg11
S'http://www.excelcharts.com/blog'
p1021
ssS'http://engineering-returns.com'
p1022
(dp1023
g10
I308
sg11
g1022
ssS'http://blogs.forbes.com/matthewherper'
p1024
(dp1025
g10
I309
sg11
g1024
ssS'http://machine-learning.blogspot.com'
p1026
(dp1027
g10
I310
sg11
g1026
ssS'http://blog.plover.com'
p1028
(dp1029
g10
I181
sg11
g1028
ssS'http://conflate.net/inductio'
p1030
(dp1031
g11
g1030
ssS'http://infographer.ru/en'
p1032
(dp1033
g10
I311
sg11
g1032
ssS'http://understandinguncertainty.org/blog'
p1034
(dp1035
g11
g1034
ssS'http://vizwiz.blogspot.com'
p1036
(dp1037
g10
I312
sg11
g1036
ssS'http://scienceblogs.com/evolgen'
p1038
(dp1039
g10
I313
sg11
g1038
ssS'http://nlpers.blogspot.com'
p1040
(dp1041
g10
I190
sg11
g1040
ssS'http://www.styleandflow.com'
p1042
(dp1043
g10
I314
sg11
g1042
ssS'http://linbaba.wordpress.com'
p1044
(dp1045
g10
I315
sg11
S'http://linbaba.wordpress.com'
p1046
ssS'http://vizthink.com'
p1047
(dp1048
g11
g1047
ssS'http://wildaboutmath.com'
p1049
(dp1050
g10
I316
sg11
g1049
ssS'http://alstatr.blogspot.com'
p1051
(dp1052
g10
I317
sg11
g1051
ssS'http://geomblog.blogspot.com'
p1053
(dp1054
g10
I318
sg11
S'http://geomblog.blogspot.com'
p1055
ssS'http://kevin-gattaca.blogspot.com'
p1056
(dp1057
g10
I319
sg11
S'http://kevin-gattaca.blogspot.com'
p1058
ssS'http://visualthinkmap.blogspot.com'
p1059
(dp1060
g11
g1059
ssS'http://blog.vinux.in'
p1061
(dp1062
g10
I320
sg11
g1061
ssS'http://thedailyviz.com'
p1063
(dp1064
g10
I76
sg11
g1063
ssS'http://www.infographicsblog.com'
p1065
(dp1066
g10
I321
sg11
g1065
ssS'http://junkcharts.typepad.com/numbersruleyourworld'
p1067
(dp1068
g10
I322
sg11
g1067
ssS'http://www.mathfinance.cn'
p1069
(dp1070
g11
g1069
ssS'http://tiffanyfarrant.co.uk'
p1071
(dp1072
g10
I323
sg11
g1071
ssS'http://www.thepersonalgenome.com'
p1073
(dp1074
g10
I324
sg11
g1073
ssS'http://www.genomeweb.com'
p1075
(dp1076
g11
g1075
ssS'http://stupidmatlabhacks.tumblr.com'
p1077
(dp1078
g11
g1077
ssS'http://scharrheds.blogspot.com'
p1079
(dp1080
g10
I325
sg11
S'http://scharrheds.blogspot.com'
p1081
ssS'http://media.aau.dk/null_space_pursuits'
p1082
(dp1083
g11
g1082
ssS'https://normaldeviate.wordpress.com'
p1084
(dp1085
g10
I326
sg11
g1084
ssS'http://www.vizthink.com/blog'
p1086
(dp1087
g10
I327
sg11
g1086
ssS'http://fishyoperations.com'
p1088
(dp1089
g10
I292
sg11
g1088
ssS'http://timharford.com/articles/undercovereconomist'
p1090
(dp1091
g10
I329
sg11
g1090
ssS'http://www.mathpuzzle.com'
p1092
(dp1093
g11
g1092
ssS'http://image-sensors-world.blogspot.com'
p1094
(dp1095
g10
I330
sg11
g1094
ssS'http://blog.thingiverse.com'
p1096
(dp1097
g10
I331
sg11
g1096
ssS'http://seqanswers.com'
p1098
(dp1099
g11
g1098
ssS'http://mathnotations.blogspot.com'
p1100
(dp1101
g10
I332
sg11
g1100
ssS'http://adventuresinr.wordpress.com'
p1102
(dp1103
g10
I333
sg11
g1102
ssS'http://socialmediagraphics.posterous.com'
p1104
(dp1105
g11
g1104
ssS'http://www.spsstools.net'
p1106
(dp1107
g11
g1106
ssS'http://almostsure.wordpress.com'
p1108
(dp1109
g10
I334
sg11
S'http://almostsure.wordpress.com'
p1110
ssS'http://weitaiyun.blogspot.com'
p1111
(dp1112
g10
I335
sg11
g1111
ssS'http://jeromyanglim.blogspot.com'
p1113
(dp1114
g11
S'http://jeromyanglim.blogspot.com'
p1115
ssS'http://www.zcliu.org/blog'
p1116
(dp1117
g10
I336
sg11
g1116
ssS'http://worldofrcraft.blogspot.com'
p1118
(dp1119
g10
I35
sg11
g1118
ssS'http://www.datamining-blog.de'
p1120
(dp1121
g10
I338
sg11
g1120
ssS'http://www.eyeondna.com'
p1122
(dp1123
g10
I339
sg11
g1122
ssS'http://bit-player.org'
p1124
(dp1125
g10
I340
sg11
S'http://bit-player.org'
p1126
ssS'http://blog.many-eyes.com'
p1127
(dp1128
g11
g1127
ssS'http://www.genomicslawreport.com'
p1129
(dp1130
g10
I341
sg11
g1129
ssS'http://www.guardian.co.uk/news/datablog'
p1131
(dp1132
g11
S'http://www.guardian.co.uk/news/datablog'
p1133
ssS'http://www.carlislerainey.com'
p1134
(dp1135
g10
I342
sg11
g1134
ssS'http://learnr.wordpress.com'
p1136
(dp1137
g10
I343
sg11
g1136
ssS'http://pairach.com'
p1138
(dp1139
g10
I344
sg11
S'http://pairach.com'
p1140
ssS'http://www.markheckmann.de'
p1141
(dp1142
g10
I345
sg11
g1141
ssS'http://numberblog.wordpress.com'
p1143
(dp1144
g10
I346
sg11
g1143
ssS'http://onbiostatistics.blogspot.com'
p1145
(dp1146
g10
I347
sg11
g1145
ssS'http://gazeinteraction.blogspot.com'
p1147
(dp1148
g10
I348
sg11
g1147
ssS'http://rdataviz.wordpress.com'
p1149
(dp1150
g10
I349
sg11
S'http://rdataviz.wordpress.com'
p1151
ssS'http://sinama.org'
p1152
(dp1153
g10
I354
sg11
g1152
ssS'http://davidketcheson.info'
p1154
(dp1155
g11
g1154
ssS'http://rgm2.lab.nig.ac.jp/RGM2/images.php?show=all&pageID=1405'
p1156
(dp1157
g11
g1156
ssS'http://www.futurepicture.org'
p1158
(dp1159
g10
I350
sg11
g1158
ssS'http://ryouready.wordpress.com'
p1160
(dp1161
g10
I253
sg11
S'http://ryouready.wordpress.com'
p1162
ssS'http://shuisman.com'
p1163
(dp1164
g10
I352
sg11
g1163
ssS'http://www.r-tutor.com'
p1165
(dp1166
g10
I353
sg11
g1165
ssS'http://www.mikewirthart.com'
p1167
(dp1168
g11
g1167
ssS'http://letsplaymath.wordpress.com'
p1169
(dp1170
g10
I355
sg11
g1169
ssS'http://rdatamining.wordpress.com'
p1171
(dp1172
g10
I351
sg11
g1171
ssS'http://thestatsblog.wordpress.com'
p1173
(dp1174
g10
I357
sg11
V
sssS'graph'
p1175
(dp1176
sS'succ'
p1177
(dp1178
g8
(dp1179
sg12
(dp1180
sg14
(dp1181
sg16
(dp1182
S'http://www.flowingdata.com'
p1183
(dp1184
sS'http://www.coolinfographics.com'
p1185
(dp1186
sS'http://www.informationisbeautiful.net'
p1187
(dp1188
ssg19
(dp1189
sg22
(dp1190
sg24
(dp1191
sg26
(dp1192
g112
(dp1193
sg800
(dp1194
sS'http://www.r-bloggers.com'
p1195
(dp1196
sS'http://www.andrewgelman.com'
p1197
(dp1198
sg195
(dp1199
ssg28
(dp1200
sg30
(dp1201
sg32
(dp1202
sg34
(dp1203
sg36
(dp1204
sg38
(dp1205
sg40
(dp1206
sg42
(dp1207
sg44
(dp1208
sg46
(dp1209
sg48
(dp1210
sg50
(dp1211
sg52
(dp1212
g158
(dp1213
sS'http://www.andrewgelman.com'
p1214
(dp1215
sS'http://www.flowingdata.com'
p1216
(dp1217
sS'http://www.perceptualedge.com/blog'
p1218
(dp1219
sS'http://www.guardian.co.uk/news/datablog'
p1220
(dp1221
sg178
(dp1222
sg1136
(dp1223
sg776
(dp1224
sg262
(dp1225
sg198
(dp1226
sg855
(dp1227
sS'http://infosthetics.com'
p1228
(dp1229
sg575
(dp1230
sg703
(dp1231
sg430
(dp1232
sg507
(dp1233
sg40
(dp1234
sg212
(dp1235
sS'http://peltiertech.com/WordPress'
p1236
(dp1237
sg64
(dp1238
sS'http://www.excelcharts.com/blog'
p1239
(dp1240
sS'http://www.r-bloggers.com'
p1241
(dp1242
sg745
(dp1243
sS'http://eagereyes.org'
p1244
(dp1245
sS'http://www.informationisbeautiful.net'
p1246
(dp1247
ssg54
(dp1248
sg56
(dp1249
sg58
(dp1250
sg60
(dp1251
g711
(dp1252
sS'http://www.statsblogs.com'
p1253
(dp1254
sg281
(dp1255
sS'http://www.r-bloggers.com'
p1256
(dp1257
ssg62
(dp1258
sg64
(dp1259
sg67
(dp1260
S'http://www.statsblogs.com'
p1261
(dp1262
sS'http://www.r-bloggers.com'
p1263
(dp1264
ssg69
(dp1265
sg72
(dp1266
sg74
(dp1267
S'http://www.statsblogs.com'
p1268
(dp1269
sg330
(dp1270
sS'http://xianblog.wordpress.com'
p1271
(dp1272
sS'http://www.andrewgelman.com'
p1273
(dp1274
sS'http://understandinguncertainty.org'
p1275
(dp1276
ssg77
(dp1277
sg79
(dp1278
sg81
(dp1279
sg83
(dp1280
sg86
(dp1281
sg88
(dp1282
sg90
(dp1283
sg92
(dp1284
S'http://infosthetics.com'
p1285
(dp1286
sS'http://junkcharts.typepad.com/numbersruleyourworld'
p1287
(dp1288
sS'http://datamining.typepad.com'
p1289
(dp1290
sg98
(dp1291
sg490
(dp1292
sg643
(dp1293
sg894
(dp1294
sg104
(dp1295
sg252
(dp1296
sg58
(dp1297
sS'http://www.informationisbeautiful.net'
p1298
(dp1299
sS'http://thestatsblog.wordpress.com'
p1300
(dp1301
sg81
(dp1302
ssg95
(dp1303
sg98
(dp1304
sg100
(dp1305
sg102
(dp1306
sg104
(dp1307
sg106
(dp1308
sg108
(dp1309
sg110
(dp1310
sg112
(dp1311
S'http://psychologicalstatistics.blogspot.com'
p1312
(dp1313
sS'http://societytosupressthecorrelationcoefficient.wordpress.com'
p1314
(dp1315
sS'http://www.r-bloggers.com'
p1316
(dp1317
ssg115
(dp1318
sg117
(dp1319
sg119
(dp1320
sg121
(dp1321
g88
(dp1322
sg418
(dp1323
sg351
(dp1324
sS'http://phylogenomics.blogspot.com'
p1325
(dp1326
sg376
(dp1327
sS'http://omicsomics.blogspot.com'
p1328
(dp1329
sS'http://kevin-gattaca.blogspot.com'
p1330
(dp1331
sS'http://www.thegeneticgenealogist.com'
p1332
(dp1333
sg500
(dp1334
sg340
(dp1335
ssg124
(dp1336
sg126
(dp1337
sg128
(dp1338
sg130
(dp1339
sg132
(dp1340
sg134
(dp1341
sg136
(dp1342
sg138
(dp1343
sg140
(dp1344
sg142
(dp1345
sg144
(dp1346
sg146
(dp1347
sg148
(dp1348
sg150
(dp1349
sg152
(dp1350
sg154
(dp1351
sg156
(dp1352
sg158
(dp1353
sg161
(dp1354
sg163
(dp1355
sg165
(dp1356
sg167
(dp1357
sg169
(dp1358
sg172
(dp1359
sg174
(dp1360
sg176
(dp1361
sg178
(dp1362
S'http://infosthetics.com'
p1363
(dp1364
sg1127
(dp1365
sS'http://junkcharts.typepad.com'
p1366
(dp1367
sg14
(dp1368
sg16
(dp1369
sg1086
(dp1370
sg163
(dp1371
sg933
(dp1372
sg146
(dp1373
sS'http://www.flowingdata.com'
p1374
(dp1375
sS'http://eagereyes.org'
p1376
(dp1377
sS'http://www.visualcomplexity.com/vc'
p1378
(dp1379
ssg181
(dp1380
sg184
(dp1381
sg186
(dp1382
sg188
(dp1383
sg191
(dp1384
sg193
(dp1385
sg195
(dp1386
S'http://psychologicalstatistics.blogspot.com'
p1387
(dp1388
sS'http://www.decisionsciencenews.com'
p1389
(dp1390
sS'http://www.johndcook.com/blog'
p1391
(dp1392
sS'http://www.andrewgelman.com'
p1393
(dp1394
ssg198
(dp1395
sg200
(dp1396
sg202
(dp1397
sg204
(dp1398
sg206
(dp1399
sg208
(dp1400
sg210
(dp1401
sg212
(dp1402
sg215
(dp1403
sg217
(dp1404
sg219
(dp1405
S'http://www.andrewgelman.com'
p1406
(dp1407
sS'http://simplystatistics.org'
p1408
(dp1409
ssg221
(dp1410
sg223
(dp1411
g567
(dp1412
sS'http://simplystatistics.org'
p1413
(dp1414
sg615
(dp1415
ssg225
(dp1416
sg227
(dp1417
sg230
(dp1418
S'http://www.statsblogs.com'
p1419
(dp1420
sS'http://www.r-bloggers.com'
p1421
(dp1422
ssg232
(dp1423
sg234
(dp1424
sg236
(dp1425
sg238
(dp1426
g1111
(dp1427
sg543
(dp1428
sg244
(dp1429
sg1149
(dp1430
sg848
(dp1431
sS'http://learnr.wordpress.com'
p1432
(dp1433
sS'http://www.r-bloggers.com'
p1434
(dp1435
sg315
(dp1436
sg674
(dp1437
sg598
(dp1438
sS'http://www.flowingdata.com'
p1439
(dp1440
sS'http://blog.revolutionanalytics.com'
p1441
(dp1442
sg1160
(dp1443
ssg240
(dp1444
sg242
(dp1445
sg244
(dp1446
g780
(dp1447
sS'http://www.r-bloggers.com'
p1448
(dp1449
ssg247
(dp1450
S'http://weblog.fortnow.com'
p1451
(dp1452
sS'http://geomblog.blogspot.com'
p1453
(dp1454
ssg250
(dp1455
sg252
(dp1456
sg254
(dp1457
sg256
(dp1458
sg258
(dp1459
sg260
(dp1460
sg262
(dp1461
sg265
(dp1462
sg267
(dp1463
sg269
(dp1464
sg272
(dp1465
g1120
(dp1466
ssg274
(dp1467
sg276
(dp1468
sg278
(dp1469
g630
(dp1470
sg889
(dp1471
sg1040
(dp1472
sg899
(dp1473
sg610
(dp1474
sS'http://hunch.net'
p1475
(dp1476
sg906
(dp1477
sg335
(dp1478
sg626
(dp1479
sg32
(dp1480
sS'http://polylogblog.wordpress.com'
p1481
(dp1482
sg926
(dp1483
sg912
(dp1484
sg862
(dp1485
sS'http://mark.reid.name/iem'
p1486
(dp1487
sg941
(dp1488
sg372
(dp1489
sg394
(dp1490
sg998
(dp1491
sS'http://hao1990.blogspot.com'
p1492
(dp1493
sg952
(dp1494
sg100
(dp1495
sS'http://www.walkingrandomly.com'
p1496
(dp1497
sg401
(dp1498
sg974
(dp1499
sg976
(dp1500
sg406
(dp1501
sg410
(dp1502
sg689
(dp1503
sg695
(dp1504
sg1005
(dp1505
sg996
(dp1506
sg124
(dp1507
sg126
(dp1508
sg428
(dp1509
sg435
(dp1510
sg140
(dp1511
sS'http://www.johndcook.com/blog'
p1512
(dp1513
sg441
(dp1514
sg28
(dp1515
sg448
(dp1516
sS'http://xianblog.wordpress.com'
p1517
(dp1518
sg729
(dp1519
sg455
(dp1520
sg156
(dp1521
sg737
(dp1522
sg165
(dp1523
sg743
(dp1524
sg167
(dp1525
sg589
(dp1526
sS'http://linbaba.wordpress.com'
p1527
(dp1528
sS'http://www.flowingdata.com'
p1529
(dp1530
sg482
(dp1531
sg174
(dp1532
sg761
(dp1533
sg667
(dp1534
sg766
(dp1535
sg188
(dp1536
sS'http://geomblog.blogspot.com'
p1537
(dp1538
sg486
(dp1539
sg200
(dp1540
sg202
(dp1541
sg788
(dp1542
sg792
(dp1543
sg1077
(dp1544
sS'http://djalil.chafai.net/blog'
p1545
(dp1546
sg803
(dp1547
sg620
(dp1548
sg265
(dp1549
sg868
(dp1550
sg1158
(dp1551
sg1084
(dp1552
sS'http://www.decisionsciencenews.com'
p1553
(dp1554
sg1094
(dp1555
sg1096
(dp1556
sS'http://terrytao.wordpress.com'
p1557
(dp1558
sg236
(dp1559
sg828
(dp1560
sg770
(dp1561
sS'http://www.andrewgelman.com'
p1562
(dp1563
sg242
(dp1564
sg550
(dp1565
sg254
(dp1566
sg260
(dp1567
sg1143
(dp1568
sg964
(dp1569
sg1147
(dp1570
sg864
(dp1571
sg873
(dp1572
sg1154
(dp1573
sg287
(dp1574
sg1082
(dp1575
sg289
(dp1576
sg591
(dp1577
sS'http://brainstat.blogspot.com'
p1578
(dp1579
ssg281
(dp1580
sg283
(dp1581
sg285
(dp1582
sg287
(dp1583
sg289
(dp1584
sg291
(dp1585
sg294
(dp1586
sg296
(dp1587
sg298
(dp1588
sg301
(dp1589
sg303
(dp1590
sg305
(dp1591
sg307
(dp1592
sg309
(dp1593
sg311
(dp1594
sg313
(dp1595
g1106
(dp1596
sg903
(dp1597
sg949
(dp1598
sg301
(dp1599
sg1000
(dp1600
sS'http://www.r-bloggers.com'
p1601
(dp1602
sS'http://www.statsblogs.com'
p1603
(dp1604
sg446
(dp1605
sg161
(dp1606
ssg315
(dp1607
sg318
(dp1608
sg320
(dp1609
sg322
(dp1610
sg324
(dp1611
sg326
(dp1612
sg328
(dp1613
sg330
(dp1614
g42
(dp1615
sS'http://blog.revolutionanalytics.com'
p1616
(dp1617
sS'/'
(dp1618
sS'http://www.r-bloggers.com'
p1619
(dp1620
ssg333
(dp1621
sg335
(dp1622
sg337
(dp1623
S'http://pathogenomics.bham.ac.uk/blog'
p1624
(dp1625
sg536
(dp1626
sg1038
(dp1627
sg645
(dp1628
sg970
(dp1629
sg318
(dp1630
sg1122
(dp1631
sg1129
(dp1632
sg982
(dp1633
sg772
(dp1634
sg44
(dp1635
sS'http://kevin-gattaca.blogspot.com'
p1636
(dp1637
sg115
(dp1638
sg786
(dp1639
sg349
(dp1640
sS'http://scienceblogs.com/digitalbio'
p1641
(dp1642
sg128
(dp1643
sg119
(dp1644
sg1073
(dp1645
sg1075
(dp1646
sS'http://www.genomesunzipped.org'
p1647
(dp1648
sS'http://pbeltrao.blogspot.com'
p1649
(dp1650
sg580
(dp1651
sS'http://nextgenseq.blogspot.com'
p1652
(dp1653
sg725
(dp1654
sg656
(dp1655
sg817
(dp1656
sg1024
(dp1657
sg1098
(dp1658
ssg340
(dp1659
sg342
(dp1660
sg344
(dp1661
sg346
(dp1662
S'http://hunch.net'
p1663
(dp1664
sS'http://mybiasedcoin.blogspot.com'
p1665
(dp1666
sS'http://geomblog.blogspot.com'
p1667
(dp1668
sS'http://blog.oddhead.com'
p1669
(dp1670
sS'http://terrytao.wordpress.com'
p1671
(dp1672
sS'http://polylogblog.wordpress.com'
p1673
(dp1674
ssg349
(dp1675
sg351
(dp1676
sg353
(dp1677
sg355
(dp1678
sg357
(dp1679
S'http://normaldeviate.wordpress.com'
p1680
(dp1681
ssg360
(dp1682
sg362
(dp1683
sg364
(dp1684
sg366
(dp1685
sg369
(dp1686
sg372
(dp1687
sg374
(dp1688
sg376
(dp1689
sg378
(dp1690
sg381
(dp1691
S'http://www.freakonomics.com/blog'
p1692
(dp1693
ssg384
(dp1694
sg386
(dp1695
sg388
(dp1696
g586
(dp1697
sg269
(dp1698
sg722
(dp1699
sg426
(dp1700
sg1090
(dp1701
sg819
(dp1702
sg524
(dp1703
sg834
(dp1704
sg108
(dp1705
ssg390
(dp1706
sg392
(dp1707
sg394
(dp1708
sg396
(dp1709
g957
(dp1710
sS'http://stochastix.wordpress.com'
p1711
(dp1712
sg604
(dp1713
sg256
(dp1714
sg910
(dp1715
sg1092
(dp1716
sg30
(dp1717
sS'http://yaroslavvb.blogspot.com'
p1718
(dp1719
sg488
(dp1720
sg1100
(dp1721
sg860
(dp1722
sg1028
(dp1723
sg210
(dp1724
sg136
(dp1725
sg217
(dp1726
sg1069
(dp1727
sS'http://www.johndcook.com/blog'
p1728
(dp1729
sg945
(dp1730
sg947
(dp1731
sg296
(dp1732
sg966
(dp1733
sg1049
(dp1734
sg1163
(dp1735
sg1169
(dp1736
ssg399
(dp1737
sg401
(dp1738
sg403
(dp1739
S'http://permut.wordpress.com'
p1740
(dp1741
ssg406
(dp1742
sg408
(dp1743
sg410
(dp1744
sg412
(dp1745
sg414
(dp1746
sg416
(dp1747
sg418
(dp1748
sg420
(dp1749
sg423
(dp1750
sg426
(dp1751
sg428
(dp1752
sg430
(dp1753
sg433
(dp1754
sg435
(dp1755
sg437
(dp1756
sg439
(dp1757
sg441
(dp1758
sg443
(dp1759
sg446
(dp1760
sg448
(dp1761
sg450
(dp1762
sg452
(dp1763
S'http://normaldeviate.wordpress.com'
p1764
(dp1765
sS'http://freakonometrics.blog.free.fr'
p1766
(dp1767
sg274
(dp1768
sS'http://www.statsblogs.com'
p1769
(dp1770
sS'http://www.andrewgelman.com'
p1771
(dp1772
sg234
(dp1773
sS'http://errorstatistics.com'
p1774
(dp1775
sg344
(dp1776
ssg455
(dp1777
sg457
(dp1778
sg459
(dp1779
sg461
(dp1780
sg463
(dp1781
sg465
(dp1782
sg467
(dp1783
sg469
(dp1784
sg471
(dp1785
sg473
(dp1786
sg475
(dp1787
sg478
(dp1788
sg480
(dp1789
sg482
(dp1790
sg484
(dp1791
sg486
(dp1792
sg488
(dp1793
sg490
(dp1794
sg492
(dp1795
S'http://www.massgenomics.org'
p1796
(dp1797
ssg495
(dp1798
sg497
(dp1799
S'http://www.statsblogs.com'
p1800
(dp1801
sS'http://xianblog.wordpress.com'
p1802
(dp1803
sg634
(dp1804
sS'http://freakonometrics.blog.free.fr'
p1805
(dp1806
sS'http://www.r-bloggers.com'
p1807
(dp1808
ssg500
(dp1809
sg502
(dp1810
S'http://freakonometrics.blog.free.fr'
p1811
(dp1812
sS'http://gowers.wordpress.com'
p1813
(dp1814
sS'http://stochastix.wordpress.com'
p1815
(dp1816
sS'http://linbaba.wordpress.com'
p1817
(dp1818
sS'http://terrytao.wordpress.com'
p1819
(dp1820
sg1003
(dp1821
sS'http://gilkalai.wordpress.com'
p1822
(dp1823
sg651
(dp1824
ssg505
(dp1825
sg507
(dp1826
sg510
(dp1827
sg512
(dp1828
sg514
(dp1829
sg516
(dp1830
sg518
(dp1831
sg521
(dp1832
sg524
(dp1833
sg526
(dp1834
sg528
(dp1835
sg530
(dp1836
S'http://infosthetics.com'
p1837
(dp1838
sg324
(dp1839
sg516
(dp1840
sg62
(dp1841
sg1019
(dp1842
sg866
(dp1843
sg1116
(dp1844
sg1063
(dp1845
sg392
(dp1846
sg134
(dp1847
sg928
(dp1848
sg1036
(dp1849
sS'http://www.flowingdata.com'
p1850
(dp1851
ssg532
(dp1852
sg534
(dp1853
sg536
(dp1854
sg538
(dp1855
sg540
(dp1856
g1030
(dp1857
ssg543
(dp1858
sg546
(dp1859
sg548
(dp1860
sg550
(dp1861
sg552
(dp1862
sg554
(dp1863
sg557
(dp1864
sg559
(dp1865
sg561
(dp1866
g36
(dp1867
sg457
(dp1868
sS'http://blog.revolutionanalytics.com'
p1869
(dp1870
sS'http://sas-and-r.blogspot.com'
p1871
(dp1872
sg602
(dp1873
sg768
(dp1874
sS'http://learnr.wordpress.com'
p1875
(dp1876
sg378
(dp1877
sS'http://www.r-bloggers.com'
p1878
(dp1879
sS'http://www.statsblogs.com'
p1880
(dp1881
sS'http://statisticsforum.wordpress.com'
p1882
(dp1883
sg885
(dp1884
sS'http://onertipaday.blogspot.com'
p1885
(dp1886
sS'http://blogs.forbes.com/naomirobbins'
p1887
(dp1888
sS'http://onbiostatistics.blogspot.com'
p1889
(dp1890
sg471
(dp1891
ssg564
(dp1892
S'http://allendowney.blogspot.com'
p1893
(dp1894
sS'http://www.johndcook.com/blog'
p1895
(dp1896
sS'http://www.statschat.org.nz'
p1897
(dp1898
sg328
(dp1899
sg959
(dp1900
sg333
(dp1901
sS'http://www.r-bloggers.com'
p1902
(dp1903
sS'http://www.cscs.umich.edu/~crshalizi/weblog'
p1904
(dp1905
sS'http://xianblog.wordpress.com'
p1906
(dp1907
sg403
(dp1908
ssg567
(dp1909
sg570
(dp1910
sg572
(dp1911
sg575
(dp1912
S'http://infosthetics.com'
p1913
(dp1914
sS'http://www.r-bloggers.com'
p1915
(dp1916
sS'http://www.andrewgelman.com'
p1917
(dp1918
sS'http://junkcharts.typepad.com/junk_charts'
p1919
(dp1920
sS'http://www.flowingdata.com'
p1921
(dp1922
sS'http://eagereyes.org'
p1923
(dp1924
ssg578
(dp1925
sg580
(dp1926
sg582
(dp1927
sg584
(dp1928
sg586
(dp1929
S'http://infosthetics.com'
p1930
(dp1931
sS'http://junkcharts.typepad.com'
p1932
(dp1933
sg639
(dp1934
sS'http://blogs.wsj.com/numbersguy'
p1935
(dp1936
sg381
(dp1937
sS'http://www.andrewgelman.com'
p1938
(dp1939
sS'http://www.informationisbeautiful.net'
p1940
(dp1941
ssg589
(dp1942
sg591
(dp1943
sg593
(dp1944
sg595
(dp1945
S'http://www.cscs.lsa.umich.edu/~crshalizi/weblog'
p1946
(dp1947
sS'http://nuit-blanche.blogspot.com'
p1948
(dp1949
sg19
(dp1950
sg1053
(dp1951
ssg598
(dp1952
sg600
(dp1953
sg602
(dp1954
sg604
(dp1955
sg606
(dp1956
sg608
(dp1957
sg610
(dp1958
sg612
(dp1959
g843
(dp1960
sg937
(dp1961
sg95
(dp1962
sS'http://geomblog.blogspot.com'
p1963
(dp1964
sg1026
(dp1965
sS'http://www.andrewgelman.com'
p1966
(dp1967
sg1011
(dp1968
sg56
(dp1969
sg346
(dp1970
ssg615
(dp1971
g1034
(dp1972
sg92
(dp1973
sS'http://statisticsforum.wordpress.com'
p1974
(dp1975
sS'http://www.andrewgelman.com'
p1976
(dp1977
sS'http://blogstats.wordpress.com'
p1978
(dp1979
sg896
(dp1980
sS'http://www.flowingdata.com'
p1981
(dp1982
sg875
(dp1983
sS'http://chartsnthings.tumblr.com'
p1984
(dp1985
sS'http://fivethirtyeight.blogs.nytimes.com'
p1986
(dp1987
sg439
(dp1988
sS'http://infosthetics.com'
p1989
(dp1990
sS'http://junkcharts.typepad.com/numbersruleyourworld'
p1991
(dp1992
sS'http://blogs.mbs.edu/fishing-in-the-bay'
p1993
(dp1994
sg578
(dp1995
sS'http://www.iq.harvard.edu/blog/sss'
p1996
(dp1997
sg880
(dp1998
sg1015
(dp1999
sS'http://junkcharts.typepad.com'
p2000
(dp2001
sS'http://statswithcats.wordpress.com'
p2002
(dp2003
sS'http://blogs.wsj.com/numbersguy'
p2004
(dp2005
sS'http://simplystatistics.org'
p2006
(dp2007
sg150
(dp2008
sS'http://thestatsblog.wordpress.com'
p2009
(dp2010
ssg618
(dp2011
sg620
(dp2012
sg622
(dp2013
sg624
(dp2014
sg626
(dp2015
sg628
(dp2016
sg630
(dp2017
sg632
(dp2018
sg634
(dp2019
sg636
(dp2020
g221
(dp2021
sg326
(dp2022
sS'http://www.andrewgelman.com'
p2023
(dp2024
sS'http://www.cscs.umich.edu/~crshalizi/weblog'
p2025
(dp2026
sS'http://www.iq.harvard.edu/blog/sss'
p2027
(dp2028
sS'http://codeandculture.wordpress.com'
p2029
(dp2030
ssg639
(dp2031
sg641
(dp2032
sg643
(dp2033
sg645
(dp2034
sg647
(dp2035
sg649
(dp2036
sg651
(dp2037
S'http://terrytao.wordpress.com'
p2038
(dp2039
sS'http://gowers.wordpress.com'
p2040
(dp2041
sg408
(dp2042
ssg654
(dp2043
sg656
(dp2044
sg658
(dp2045
sg661
(dp2046
g473
(dp2047
sg176
(dp2048
sg1131
(dp2049
sg12
(dp2050
sg570
(dp2051
sg72
(dp2052
sg552
(dp2053
sg24
(dp2054
sg169
(dp2055
sg756
(dp2056
sg782
(dp2057
sg154
(dp2058
sg240
(dp2059
sS'/'
(dp2060
sg86
(dp2061
ssg663
(dp2062
sg665
(dp2063
sg667
(dp2064
sg670
(dp2065
sg672
(dp2066
g8
(dp2067
sg1022
(dp2068
sS'http://www.r-bloggers.com'
p2069
(dp2070
sg191
(dp2071
sg528
(dp2072
sg628
(dp2073
ssg674
(dp2074
sg676
(dp2075
sg678
(dp2076
sg680
(dp2077
S'http://www.andrewgelman.com/blog'
p2078
(dp2079
sS'http://messymatters.com'
p2080
(dp2081
sS'http://www.r-bloggers.com'
p2082
(dp2083
ssg683
(dp2084
sg685
(dp2085
sg687
(dp2086
S'http://www.statsblogs.com'
p2087
(dp2088
sg697
(dp2089
sS'http://www.r-bloggers.com'
p2090
(dp2091
ssg689
(dp2092
sg691
(dp2093
sg693
(dp2094
S'http://www.johndcook.com/blog'
p2095
(dp2096
sg478
(dp2097
sg152
(dp2098
sg794
(dp2099
sg774
(dp2100
sS'http://www.r-bloggers.com'
p2101
(dp2102
sg186
(dp2103
sg632
(dp2104
sg972
(dp2105
ssg695
(dp2106
sg697
(dp2107
sg699
(dp2108
g921
(dp2109
sg433
(dp2110
sg978
(dp2111
sg763
(dp2112
sS'/'
(dp2113
ssg701
(dp2114
sg703
(dp2115
sg705
(dp2116
sg707
(dp2117
S'http://statsblogs.com'
p2118
(dp2119
sS'http://www.r-bloggers.com'
p2120
(dp2121
ssg709
(dp2122
sg711
(dp2123
sg714
(dp2124
sg717
(dp2125
S'http://hunch.net'
p2126
(dp2127
sS'http://michaelnielsen.org/blog'
p2128
(dp2129
sS'http://mybiasedcoin.blogspot.com'
p2130
(dp2131
sS'http://geomblog.blogspot.com'
p2132
(dp2133
sS'http://blogs.williams.edu/Morgan'
p2134
(dp2135
sg90
(dp2136
sS'http://www.andrewgelman.com'
p2137
(dp2138
sS'http://terrytao.wordpress.com'
p2139
(dp2140
sg512
(dp2141
ssg720
(dp2142
sg722
(dp2143
sg725
(dp2144
sg727
(dp2145
sg729
(dp2146
sg731
(dp2147
g612
(dp2148
sS'http://www.cscs.umich.edu/~crshalizi/weblog'
p2149
(dp2150
sS'http://www.andrewgelman.com'
p2151
(dp2152
sg357
(dp2153
sg278
(dp2154
sS'http://xianblog.wordpress.com'
p2155
(dp2156
sS'http://errorstatistics.com'
p2157
(dp2158
ssg734
(dp2159
g796
(dp2160
sg386
(dp2161
sg534
(dp2162
sg991
(dp2163
ssg737
(dp2164
sg739
(dp2165
sg741
(dp2166
sg743
(dp2167
sg745
(dp2168
S'http://infosthetics.com'
p2169
(dp2170
sS'http://www.perceptualedge.com/blog'
p2171
(dp2172
sS'http://datamining.typepad.com/data_mining'
p2173
(dp2174
sg701
(dp2175
sS'http://junkcharts.typepad.com/junk_charts'
p2176
(dp2177
sS'http://www.flowingdata.com'
p2178
(dp2179
sg360
(dp2180
sS'http://eagereyes.org'
p2181
(dp2182
ssg748
(dp2183
sg751
(dp2184
S'http://terrytao.wordpress.com'
p2185
(dp2186
ssg754
(dp2187
sg756
(dp2188
sg759
(dp2189
sg761
(dp2190
sg763
(dp2191
sg766
(dp2192
sg768
(dp2193
sg770
(dp2194
sg772
(dp2195
sg774
(dp2196
sg776
(dp2197
sg778
(dp2198
sg780
(dp2199
sg782
(dp2200
sg784
(dp2201
sg786
(dp2202
sg788
(dp2203
sg790
(dp2204
sg792
(dp2205
sg794
(dp2206
sg796
(dp2207
sg798
(dp2208
sg800
(dp2209
S'http://psychologicalstatistics.blogspot.com'
p2210
(dp2211
sS'http://seriousstats.wordpress.com'
p2212
(dp2213
ssg803
(dp2214
sg805
(dp2215
g416
(dp2216
sg654
(dp2217
sS'http://gettinggeneticsdone.blogspot.com'
p2218
(dp2219
sg778
(dp2220
sg683
(dp2221
sg208
(dp2222
sg618
(dp2223
sS'http://www.r-bloggers.com'
p2224
(dp2225
sg355
(dp2226
sg484
(dp2227
sS'http://omicsomics.blogspot.com'
p2228
(dp2229
sg987
(dp2230
sg526
(dp2231
sg311
(dp2232
sg741
(dp2233
sS'http://nextgenseq.blogspot.com'
p2234
(dp2235
sg50
(dp2236
sg584
(dp2237
sg461
(dp2238
ssg808
(dp2239
sg811
(dp2240
S'http://www.r-bloggers.com'
p2241
(dp2242
ssg813
(dp2243
sg815
(dp2244
sg817
(dp2245
sg819
(dp2246
sg821
(dp2247
S'http://understandinguncertainty.org'
p2248
(dp2249
sg731
(dp2250
sS'http://www.r-bloggers.com'
p2251
(dp2252
sS'http://www.statsblogs.com'
p2253
(dp2254
sS'http://www.andrewgelman.com'
p2255
(dp2256
sg1079
(dp2257
sg452
(dp2258
sg510
(dp2259
ssg823
(dp2260
sg825
(dp2261
g636
(dp2262
sg291
(dp2263
sS'http://www.andrewgelman.com/blog'
p2264
(dp2265
sS'http://www.johndcook.com/blog'
p2266
(dp2267
sg184
(dp2268
ssg828
(dp2269
sg830
(dp2270
sg832
(dp2271
sg834
(dp2272
S'http://infosthetics.com'
p2273
(dp2274
sS'http://www.cscs.umich.edu/~crshalizi/weblog'
p2275
(dp2276
sS'http://junkcharts.typepad.com'
p2277
(dp2278
sS'http://normaldeviate.wordpress.com'
p2279
(dp2280
sS'http://www.statsblogs.com'
p2281
(dp2282
sg845
(dp2283
sg374
(dp2284
sS'http://xianblog.wordpress.com'
p2285
(dp2286
sS'http://www.themonkeycage.org'
p2287
(dp2288
sS'http://www.r-bloggers.com'
p2289
(dp2290
sS'http://fivethirtyeight.blogs.nytimes.com'
p2291
(dp2292
sg680
(dp2293
sS'http://statisticsforum.wordpress.com'
p2294
(dp2295
sS'http://www.johndcook.com/blog'
p2296
(dp2297
sS'http://blogs.wsj.com/numbersguy'
p2298
(dp2299
sg825
(dp2300
sg215
(dp2301
sS'http://simplystatistics.org'
p2302
(dp2303
sS'http://eagereyes.org'
p2304
(dp2305
sS'http://strangemaps.wordpress.com'
p2306
(dp2307
sS'http://junkcharts.typepad.com/numbersruleyourworld'
p2308
(dp2309
ssg837
(dp2310
sg839
(dp2311
sg841
(dp2312
S'http://www.statsblogs.com'
p2313
(dp2314
sg891
(dp2315
ssg843
(dp2316
sg845
(dp2317
sg848
(dp2318
sg850
(dp2319
S'http://www.r-bloggers.com'
p2320
(dp2321
ssg853
(dp2322
sg855
(dp2323
g830
(dp2324
sg532
(dp2325
sg102
(dp2326
sg309
(dp2327
sg754
(dp2328
sg1071
(dp2329
sg1007
(dp2330
sg480
(dp2331
sg22
(dp2332
sg665
(dp2333
sg1104
(dp2334
sg968
(dp2335
sg172
(dp2336
sS'http://www.flowingdata.com'
p2337
(dp2338
sg980
(dp2339
sg467
(dp2340
sg320
(dp2341
sg106
(dp2342
sg813
(dp2343
sg110
(dp2344
sg685
(dp2345
sg832
(dp2346
sg557
(dp2347
sg1047
(dp2348
sg985
(dp2349
sg548
(dp2350
sg691
(dp2351
sg414
(dp2352
sg117
(dp2353
sg878
(dp2354
sg858
(dp2355
sg784
(dp2356
sg676
(dp2357
sg1059
(dp2358
sS'http://infosthetics.com'
p2359
(dp2360
sg204
(dp2361
sg600
(dp2362
sg1065
(dp2363
sg38
(dp2364
sS'http://datamining.typepad.com/data_mining'
p2365
(dp2366
sg739
(dp2367
sg641
(dp2368
sg305
(dp2369
sg705
(dp2370
sg276
(dp2371
sg353
(dp2372
sg34
(dp2373
sg399
(dp2374
sg132
(dp2375
sg709
(dp2376
sS'http://simplecomplexity.net'
p2377
(dp2378
sg469
(dp2379
sS'http://eagereyes.org'
p2380
(dp2381
sg148
(dp2382
sg1013
(dp2383
sg364
(dp2384
sg720
(dp2385
sg384
(dp2386
sS'http://junkcharts.typepad.com'
p2387
(dp2388
sg1017
(dp2389
sg883
(dp2390
sg798
(dp2391
sg790
(dp2392
sg225
(dp2393
sg294
(dp2394
sg939
(dp2395
sg144
(dp2396
sg1032
(dp2397
sg514
(dp2398
sg546
(dp2399
sg914
(dp2400
sg48
(dp2401
sg593
(dp2402
sg303
(dp2403
sg54
(dp2404
sg138
(dp2405
sg1167
(dp2406
sg79
(dp2407
sg727
(dp2408
sS'http://www.informationisbeautiful.net'
p2409
(dp2410
sg1042
(dp2411
ssg858
(dp2412
sg860
(dp2413
sg862
(dp2414
sg864
(dp2415
sg866
(dp2416
sg868
(dp2417
sg870
(dp2418
sg873
(dp2419
sg875
(dp2420
S'http://www.flowingdata.com'
p2421
(dp2422
sS'http://simplystatistics.org'
p2423
(dp2424
sS'http://www.statschat.org.nz'
p2425
(dp2426
ssg878
(dp2427
sg880
(dp2428
sg883
(dp2429
sg885
(dp2430
sg887
(dp2431
S'http://www.r-bloggers.com'
p2432
(dp2433
ssg889
(dp2434
sg891
(dp2435
S'http://botthoughts.wordpress.com'
p2436
(dp2437
sS'http://www.r-bloggers.com'
p2438
(dp2439
ssg894
(dp2440
sg896
(dp2441
sg899
(dp2442
sg901
(dp2443
sg903
(dp2444
S'http://www.johndcook.com/blog'
p2445
(dp2446
sg267
(dp2447
sg823
(dp2448
sS'http://www.andrewgelman.com'
p2449
(dp2450
sS'http://lovestats.wordpress.com'
p2451
(dp2452
sS'http://simplystatistics.org'
p2453
(dp2454
ssg906
(dp2455
sg908
(dp2456
sg910
(dp2457
sg912
(dp2458
sg914
(dp2459
sg916
(dp2460
S'http://www.johndcook.com/blog'
p2461
(dp2462
sS'http://www.r-bloggers.com'
p2463
(dp2464
sS'http://www.andrewgelman.com'
p2465
(dp2466
sg396
(dp2467
sS'http://xianblog.wordpress.com'
p2468
(dp2469
sS'http://simplystatistics.org'
p2470
(dp2471
ssg918
(dp2472
g247
(dp2473
sS'http://hunch.net'
p2474
(dp2475
sS'http://nuit-blanche.blogspot.com'
p2476
(dp2477
ssg921
(dp2478
sg924
(dp2479
S'http://darrenjw.wordpress.com'
p2480
(dp2481
sS'http://normaldeviate.wordpress.com'
p2482
(dp2483
sg853
(dp2484
sg658
(dp2485
sg1113
(dp2486
sg463
(dp2487
sg250
(dp2488
sg337
(dp2489
sg961
(dp2490
sg83
(dp2491
sS'http://www.andrewgelman.com'
p2492
(dp2493
sg748
(dp2494
sg1044
(dp2495
sS'http://www.flowingdata.com'
p2496
(dp2497
sg606
(dp2498
sg322
(dp2499
sS'http://gettinggeneticsdone.blogspot.com'
p2500
(dp2501
sg475
(dp2502
sg258
(dp2503
sg181
(dp2504
sg850
(dp2505
sg561
(dp2506
sg1056
(dp2507
sg564
(dp2508
sg918
(dp2509
sg342
(dp2510
sg492
(dp2511
sg572
(dp2512
sg206
(dp2513
sg412
(dp2514
sg423
(dp2515
sg121
(dp2516
sg954
(dp2517
sg497
(dp2518
sg870
(dp2519
sg582
(dp2520
sg805
(dp2521
sg714
(dp2522
sg808
(dp2523
sS'http://www.statsblogs.com'
p2524
(dp2525
sS'http://understandinguncertainty.org'
p2526
(dp2527
sg369
(dp2528
sS'http://www.johndcook.com/blog'
p2529
(dp2530
sg518
(dp2531
sg930
(dp2532
sS'http://errorstatistics.com'
p2533
(dp2534
sg227
(dp2535
sg554
(dp2536
sS'http://www.r-bloggers.com'
p2537
(dp2538
sg74
(dp2539
sg943
(dp2540
sg366
(dp2541
sS'http://bayesianbiologist.com'
p2542
(dp2543
sS'http://xianblog.wordpress.com'
p2544
(dp2545
sg595
(dp2546
sg1138
(dp2547
ssg926
(dp2548
sg928
(dp2549
sg930
(dp2550
S'http://www.johndcook.com/blog'
p2551
(dp2552
sS'http://gettinggeneticsdone.blogspot.com'
p2553
(dp2554
sS'http://www.r-bloggers.com'
p2555
(dp2556
sS'http://statisticsforum.wordpress.com'
p2557
(dp2558
sS'http://www.andrewgelman.com'
p2559
(dp2560
sS'http://www.flowingdata.com'
p2561
(dp2562
sS'http://www.informationisbeautiful.net'
p2563
(dp2564
ssg933
(dp2565
sg935
(dp2566
sg937
(dp2567
sg939
(dp2568
sg941
(dp2569
sg943
(dp2570
sg945
(dp2571
sg947
(dp2572
sg949
(dp2573
g993
(dp2574
sg935
(dp2575
sg285
(dp2576
sg734
(dp2577
sg443
(dp2578
sS'http://www.dataminingblog.com'
p2579
(dp2580
sg193
(dp2581
sg505
(dp2582
sS'http://lovestats.wordpress.com'
p2583
(dp2584
sS'http://blog.data-miners.com'
p2585
(dp2586
ssg952
(dp2587
sg954
(dp2588
sg957
(dp2589
sg959
(dp2590
sg961
(dp2591
sg964
(dp2592
sg966
(dp2593
sg968
(dp2594
sg970
(dp2595
sg972
(dp2596
sg974
(dp2597
sg976
(dp2598
sg978
(dp2599
sg980
(dp2600
sg982
(dp2601
sS'/'
(dp2602
sg985
(dp2603
sg987
(dp2604
sg989
(dp2605
sg991
(dp2606
sg993
(dp2607
sg996
(dp2608
sg998
(dp2609
sg1000
(dp2610
sg1003
(dp2611
sg1005
(dp2612
sg1007
(dp2613
sg1009
(dp2614
sg1011
(dp2615
sg1013
(dp2616
sg1015
(dp2617
sg1017
(dp2618
sg1019
(dp2619
sg1022
(dp2620
sg1024
(dp2621
sg1026
(dp2622
sg1028
(dp2623
sg1030
(dp2624
sg1032
(dp2625
sg1034
(dp2626
sg1036
(dp2627
sg1038
(dp2628
sg1040
(dp2629
sg1042
(dp2630
sg1044
(dp2631
g1124
(dp2632
sg1108
(dp2633
sg69
(dp2634
sg502
(dp2635
sS'http://xianblog.wordpress.com'
p2636
(dp2637
sg717
(dp2638
sg540
(dp2639
ssg1047
(dp2640
sg1049
(dp2641
sg1051
(dp2642
g1152
(dp2643
sg1156
(dp2644
sg538
(dp2645
sg283
(dp2646
sg989
(dp2647
ssg1053
(dp2648
S'http://hunch.net'
p2649
(dp2650
sS'http://blog.computationalcomplexity.org'
p2651
(dp2652
sS'http://mark.reid.name/iem'
p2653
(dp2654
sg837
(dp2655
sg839
(dp2656
sS'http://terrytao.wordpress.com'
p2657
(dp2658
sS'http://polylogblog.wordpress.com'
p2659
(dp2660
sS'http://nlpers.blogspot.com'
p2661
(dp2662
sS'http://gilkalai.wordpress.com'
p2663
(dp2664
sS'http://gottwurfelt.wordpress.com'
p2665
(dp2666
ssg1056
(dp2667
g908
(dp2668
sS'http://omicsomics.blogspot.com'
p2669
(dp2670
sS'http://phylogenomics.blogspot.com'
p2671
(dp2672
sS'http://bcbio.wordpress.com'
p2673
(dp2674
sg624
(dp2675
ssg1059
(dp2676
sg1061
(dp2677
sg1063
(dp2678
sg1065
(dp2679
sg1067
(dp2680
S'http://understandinguncertainty.org'
p2681
(dp2682
sS'http://www.johndcook.com/blog'
p2683
(dp2684
sS'http://www.statschat.org.nz'
p2685
(dp2686
sg390
(dp2687
sg521
(dp2688
sg622
(dp2689
sS'http://realizationsinbiostatistics.blogspot.com'
p2690
(dp2691
sS'http://www.andrewgelman.com'
p2692
(dp2693
sg232
(dp2694
sS'http://xianblog.wordpress.com'
p2695
(dp2696
sg647
(dp2697
sg1173
(dp2698
sg465
(dp2699
ssg1069
(dp2700
sg1071
(dp2701
sg1073
(dp2702
sg1075
(dp2703
sg1077
(dp2704
sg1079
(dp2705
sg1082
(dp2706
sg1084
(dp2707
sg1086
(dp2708
sg1088
(dp2709
S'http://www.statsblogs.com'
p2710
(dp2711
sS'http://www.r-bloggers.com'
p2712
(dp2713
ssg1090
(dp2714
sg1092
(dp2715
sg1094
(dp2716
sg1096
(dp2717
sg1098
(dp2718
sg1100
(dp2719
sg1102
(dp2720
sg1104
(dp2721
sg1106
(dp2722
sg1108
(dp2723
S'http://terrytao.wordpress.com'
p2724
(dp2725
sS'http://gottwurfelt.wordpress.com'
p2726
(dp2727
sg751
(dp2728
ssg1111
(dp2729
sg1113
(dp2730
S'http://www.johndcook.com/blog'
p2731
(dp2732
sg815
(dp2733
sS'http://normaldeviate.wordpress.com'
p2734
(dp2735
sg420
(dp2736
sg670
(dp2737
sS'http://www.cerebralmastication.com'
p2738
(dp2739
sg298
(dp2740
sg130
(dp2741
sS'http://www.johnmyleswhite.com'
p2742
(dp2743
sS'http://www.andrewgelman.com'
p2744
(dp2745
sS'http://robjhyndman.com'
p2746
(dp2747
sS'http://blog.revolutionanalytics.com'
p2748
(dp2749
sg608
(dp2750
ssg1116
(dp2751
sg1118
(dp2752
sg1120
(dp2753
sg1122
(dp2754
sg1124
(dp2755
sg1127
(dp2756
sg1129
(dp2757
sg1131
(dp2758
sg1134
(dp2759
sg1136
(dp2760
sg1138
(dp2761
sg1141
(dp2762
sg1143
(dp2763
sg1145
(dp2764
S'http://realizationsinbiostatistics.blogspot.com'
p2765
(dp2766
ssg1147
(dp2767
sg1149
(dp2768
sg1152
(dp2769
sg1154
(dp2770
sg1156
(dp2771
sg1158
(dp2772
sg1160
(dp2773
S'http://blog.revolutionanalytics.com'
p2774
(dp2775
sS'http://www.cerebralmastication.com'
p2776
(dp2777
sS'http://learnr.wordpress.com'
p2778
(dp2779
sg1009
(dp2780
sS'http://www.r-bloggers.com'
p2781
(dp2782
sg1141
(dp2783
sg1118
(dp2784
sg559
(dp2785
sS'http://onertipaday.blogspot.com'
p2786
(dp2787
ssg1163
(dp2788
sg1165
(dp2789
sg1167
(dp2790
sg1169
(dp2791
sg1171
(dp2792
sg1173
(dp2793
S'http://blogs.wsj.com/numbersguy'
p2794
(dp2795
sssS'edge'
p2796
g1178
sS'pred'
p2797
(dp2798
g8
(dp2799
g672
g2067
ssg12
(dp2800
g661
g2050
ssg14
(dp2801
g180
g1368
ssg16
(dp2802
g180
g1369
ssg19
(dp2803
g597
g1950
ssg22
(dp2804
g857
g2332
ssg24
(dp2805
g661
g2054
ssg26
(dp2806
g114
g1313
sg802
g2211
sg197
g1388
ssg28
(dp2807
g280
g1515
ssg30
(dp2808
g398
g1717
ssg32
(dp2809
g398
g1719
sg280
g1480
ssg34
(dp2810
g857
g2373
ssg36
(dp2811
g563
g1867
ssg38
(dp2812
g857
g2364
ssg40
(dp2813
g52
g1234
ssg42
(dp2814
g332
g1615
ssg44
(dp2815
g339
g1635
ssg46
(dp2816
sg48
(dp2817
g857
g2401
ssg50
(dp2818
g807
g2236
sg339
g1650
ssg52
(dp2819
g577
g1920
sg747
g2177
ssg54
(dp2820
g857
g2404
ssg56
(dp2821
g614
g1969
ssg58
(dp2822
g94
g1297
ssg60
(dp2823
sg62
(dp2824
g530
g1841
sg52
g1237
ssg64
(dp2825
g52
g1238
ssg67
(dp2826
sg69
(dp2827
g719
g2135
sg1046
g2634
ssg72
(dp2828
g661
g2052
ssg74
(dp2829
g924
g2539
ssg77
(dp2830
sg79
(dp2831
g857
g2407
ssg81
(dp2832
g94
g1302
ssg83
(dp2833
g339
g1642
sg924
g2491
ssg86
(dp2834
g661
g2061
ssg88
(dp2835
g123
g1322
ssg90
(dp2836
g249
g1452
sg719
g2136
ssg92
(dp2837
g617
g1973
ssg95
(dp2838
g614
g1962
ssg98
(dp2839
g94
g1291
ssg100
(dp2840
g280
g1495
ssg102
(dp2841
g857
g2326
ssg104
(dp2842
g94
g1295
ssg106
(dp2843
g857
g2342
ssg108
(dp2844
g1162
g2775
sg332
g1617
sg1115
g2749
sg563
g1870
sg388
g1705
sg238
g1442
ssg110
(dp2845
g857
g2344
ssg112
(dp2846
g26
g1193
sg802
g2213
ssg115
(dp2847
g339
g1638
ssg117
(dp2848
g857
g2353
ssg119
(dp2849
g339
g1644
ssg121
(dp2850
g924
g2516
ssg124
(dp2851
g280
g1507
ssg126
(dp2852
g280
g1508
ssg128
(dp2853
g339
g1643
ssg130
(dp2854
g1115
g2741
ssg132
(dp2855
g857
g2375
ssg134
(dp2856
g530
g1847
ssg136
(dp2857
g398
g1725
ssg138
(dp2858
g857
g2405
ssg140
(dp2859
g280
g1511
ssg142
(dp2860
sg144
(dp2861
g857
g2396
ssg146
(dp2862
g180
g1373
ssg148
(dp2863
g857
g2382
ssg150
(dp2864
g617
g2008
ssg152
(dp2865
g693
g2098
ssg154
(dp2866
g588
g1941
sg94
g1299
sg18
g1188
sg661
g2058
sg52
g1247
sg932
g2564
sg857
g2410
ssg156
(dp2867
g280
g1521
ssg158
(dp2868
g52
g1213
ssg161
(dp2869
g313
g1606
ssg163
(dp2870
g180
g1371
ssg165
(dp2871
g280
g1523
ssg167
(dp2872
g280
g1525
ssg169
(dp2873
g661
g2055
sg617
g1979
ssg172
(dp2874
g857
g2336
ssg174
(dp2875
g280
g1532
ssg176
(dp2876
g747
g2172
sg661
g2048
sg52
g1219
ssg178
(dp2877
g52
g1222
ssg181
(dp2878
g924
g2504
ssg184
(dp2879
g827
g2268
ssg186
(dp2880
g836
g2288
sg693
g2103
ssg188
(dp2881
g280
g1536
ssg191
(dp2882
g672
g2071
ssg193
(dp2883
g951
g2581
ssg195
(dp2884
g26
g1199
ssg198
(dp2885
g52
g1226
ssg200
(dp2886
g280
g1540
ssg202
(dp2887
g280
g1541
ssg204
(dp2888
g857
g2361
ssg206
(dp2889
g924
g2513
ssg208
(dp2890
g807
g2222
sg1058
g2674
ssg210
(dp2891
g398
g1724
ssg212
(dp2892
g52
g1235
ssg215
(dp2893
g836
g2301
sg920
g2477
sg597
g1949
ssg217
(dp2894
g398
g1726
ssg219
(dp2895
sg221
(dp2896
g638
g2021
ssg223
(dp2897
sg225
(dp2898
g857
g2393
ssg227
(dp2899
g924
g2535
ssg230
(dp2900
sg232
(dp2901
g1067
g2694
ssg234
(dp2902
g1110
g2725
sg1055
g2658
sg280
g1558
sg504
g1820
sg753
g2186
sg348
g1672
sg454
g1773
sg719
g2140
sg653
g2039
ssg236
(dp2903
g280
g1559
ssg238
(dp2904
g563
g1886
sg1162
g2787
ssg240
(dp2905
g661
g2059
ssg242
(dp2906
g280
g1564
ssg244
(dp2907
g238
g1429
ssg247
(dp2908
g920
g2473
sg719
g2131
sg348
g1666
ssg250
(dp2909
g924
g2488
ssg252
(dp2910
g94
g1296
ssg254
(dp2911
g280
g1566
ssg256
(dp2912
g398
g1714
ssg258
(dp2913
g924
g2503
ssg260
(dp2914
g280
g1567
ssg262
(dp2915
g52
g1225
ssg265
(dp2916
g280
g1549
ssg267
(dp2917
g905
g2447
ssg269
(dp2918
g388
g1698
sg566
g1894
ssg272
(dp2919
sg274
(dp2920
g454
g1768
sg504
g1814
sg653
g2041
ssg276
(dp2921
g857
g2371
ssg278
(dp2922
g733
g2154
ssg281
(dp2923
g60
g1255
ssg283
(dp2924
g1051
g2646
ssg285
(dp2925
g951
g2576
ssg287
(dp2926
g280
g1574
ssg289
(dp2927
g280
g1576
ssg291
(dp2928
g827
g2263
ssg294
(dp2929
g857
g2394
ssg296
(dp2930
g398
g1732
ssg298
(dp2931
g1115
g2740
ssg301
(dp2932
g313
g1599
ssg303
(dp2933
g857
g2403
ssg305
(dp2934
g857
g2369
ssg307
(dp2935
g454
g1775
sg924
g2534
sg733
g2158
ssg309
(dp2936
g857
g2327
ssg311
(dp2937
g807
g2232
ssg313
(dp2938
sg315
(dp2939
g238
g1436
ssg318
(dp2940
g339
g1630
ssg320
(dp2941
g180
g1379
sg857
g2341
ssg322
(dp2942
g924
g2499
ssg324
(dp2943
g530
g1839
ssg326
(dp2944
g638
g2022
ssg328
(dp2945
g499
g1806
sg454
g1767
sg504
g1812
sg566
g1899
ssg330
(dp2946
g76
g1270
ssg333
(dp2947
g566
g1901
ssg335
(dp2948
g280
g1478
ssg337
(dp2949
g807
g2229
sg924
g2489
sg1058
g2670
sg123
g1329
ssg340
(dp2950
g123
g1335
ssg342
(dp2951
g924
g2510
ssg344
(dp2952
g454
g1776
ssg346
(dp2953
g614
g1970
sg1055
g2652
ssg349
(dp2954
g339
g1640
ssg351
(dp2955
g123
g1324
ssg353
(dp2956
g857
g2372
ssg355
(dp2957
g807
g2226
ssg357
(dp2958
g733
g2153
ssg360
(dp2959
g747
g2180
ssg362
(dp2960
g951
g2586
ssg364
(dp2961
g857
g2384
ssg366
(dp2962
g924
g2541
ssg369
(dp2963
g924
g2528
ssg372
(dp2964
g280
g1489
ssg374
(dp2965
g682
g2081
sg836
g2284
ssg376
(dp2966
g123
g1327
ssg378
(dp2967
g563
g1877
ssg381
(dp2968
g588
g1937
ssg384
(dp2969
g857
g2386
ssg386
(dp2970
g736
g2161
ssg388
(dp2971
g924
g2543
ssg390
(dp2972
g94
g1290
sg1067
g2687
ssg392
(dp2973
g530
g1846
ssg394
(dp2974
g280
g1490
ssg396
(dp2975
g916
g2467
sg280
g1497
ssg399
(dp2976
g857
g2374
ssg401
(dp2977
g280
g1498
ssg403
(dp2978
g638
g2030
sg566
g1908
ssg406
(dp2979
g280
g1501
ssg408
(dp2980
g653
g2042
ssg410
(dp2981
g280
g1502
ssg412
(dp2982
g924
g2514
ssg414
(dp2983
g857
g2352
ssg416
(dp2984
g807
g2216
ssg418
(dp2985
g123
g1323
ssg420
(dp2986
g1115
g2736
sg617
g1994
ssg423
(dp2987
g924
g2515
ssg426
(dp2988
g388
g1700
ssg428
(dp2989
g280
g1509
ssg430
(dp2990
g836
g2307
sg52
g1232
ssg433
(dp2991
g339
g1648
sg699
g2110
ssg435
(dp2992
g280
g1510
ssg437
(dp2993
sg439
(dp2994
g617
g1988
sg383
g1693
ssg441
(dp2995
g280
g1514
ssg443
(dp2996
g951
g2578
sg617
g2003
ssg446
(dp2997
g313
g1605
ssg448
(dp2998
g280
g1516
ssg450
(dp2999
sg452
(dp3000
g924
g2545
sg733
g2156
sg916
g2469
sg821
g2258
sg76
g1272
sg499
g1803
sg836
g2286
sg566
g1907
sg1046
g2637
sg280
g1518
sg1067
g2696
ssg455
(dp3001
g280
g1520
ssg457
(dp3002
g563
g1868
ssg459
(dp3003
g924
g2481
ssg461
(dp3004
g807
g2238
sg339
g1625
ssg463
(dp3005
g924
g2487
ssg465
(dp3006
g1067
g2699
ssg467
(dp3007
g857
g2340
ssg469
(dp3008
g857
g2379
ssg471
(dp3009
g563
g1891
ssg473
(dp3010
g661
g2047
ssg475
(dp3011
g924
g2502
ssg478
(dp3012
g693
g2097
ssg480
(dp3013
g857
g2331
ssg482
(dp3014
g280
g1531
ssg484
(dp3015
g807
g2227
ssg486
(dp3016
g280
g1539
ssg488
(dp3017
g398
g1720
ssg490
(dp3018
g94
g1292
ssg492
(dp3019
g924
g2511
ssg495
(dp3020
g857
g2366
sg747
g2174
ssg497
(dp3021
g924
g2518
ssg500
(dp3022
g123
g1334
ssg502
(dp3023
g280
g1546
sg1046
g2635
ssg505
(dp3024
g951
g2582
ssg507
(dp3025
g52
g1233
ssg510
(dp3026
g821
g2259
ssg512
(dp3027
g719
g2141
ssg514
(dp3028
g857
g2398
ssg516
(dp3029
g588
g1933
sg617
g2001
sg180
g1367
sg836
g2278
sg530
g1840
sg857
g2388
ssg518
(dp3030
g924
g2531
ssg521
(dp3031
g588
g1936
sS'http://thestatsblog.wordpress.com'
p3032
g2795
sg836
g2299
sg617
g2005
sg1067
g2688
ssg524
(dp3033
g60
g1254
sg924
g2525
sg841
g2314
sg313
g1604
sg67
g1262
sg230
g1420
sg687
g2088
sg821
g2254
sg76
g1269
sg1088
g2711
sg563
g1881
sg836
g2282
sg388
g1703
sg454
g1770
sg499
g1801
ssg526
(dp3034
g807
g2231
sg123
g1333
ssg528
(dp3035
g672
g2072
ssg530
(dp3036
g577
g1924
sg180
g1377
sg836
g2305
sg52
g1245
sg747
g2182
sg857
g2381
ssg532
(dp3037
g857
g2325
ssg534
(dp3038
g736
g2162
ssg536
(dp3039
g339
g1626
ssg538
(dp3040
g1051
g2645
ssg540
(dp3041
g398
g1712
sg504
g1816
sg1046
g2639
ssg543
(dp3042
g563
g1872
sg238
g1428
ssg546
(dp3043
g857
g2399
ssg548
(dp3044
g857
g2350
ssg550
(dp3045
g280
g1565
ssg552
(dp3046
g661
g2053
ssg554
(dp3047
g924
g2536
sg280
g1493
ssg557
(dp3048
g857
g2347
ssg559
(dp3049
g1162
g2785
ssg561
(dp3050
g924
g2506
sg1067
g2691
sg1145
g2766
ssg564
(dp3051
g924
g2508
ssg567
(dp3052
g905
g2452
sg951
g2584
sg223
g1412
ssg570
(dp3053
g661
g2051
ssg572
(dp3054
g924
g2512
sg1115
g2743
ssg575
(dp3055
g52
g1230
ssg578
(dp3056
g617
g1995
ssg580
(dp3057
g339
g1651
ssg582
(dp3058
g807
g2235
sg339
g1653
sg924
g2520
ssg584
(dp3059
g807
g2237
ssg586
(dp3060
g821
g2249
sg388
g1697
sg924
g2527
sg1067
g2682
sg76
g1276
ssg589
(dp3061
g280
g1526
ssg591
(dp3062
g280
g1577
ssg593
(dp3063
g857
g2402
ssg595
(dp3064
g924
g2546
sg280
g1579
ssg598
(dp3065
g238
g1438
ssg600
(dp3066
g857
g2362
ssg602
(dp3067
g563
g1873
ssg604
(dp3068
g398
g1713
ssg606
(dp3069
g638
g2026
sg924
g2498
sg836
g2276
sg733
g2150
sg566
g1905
ssg608
(dp3070
g1115
g2750
ssg610
(dp3071
g280
g1474
ssg612
(dp3072
g733
g2148
sg1055
g2650
sg280
g1476
sg920
g2475
sg719
g2127
sg348
g1664
ssg615
(dp3073
g877
g2426
sg1067
g2686
sg566
g1898
sg223
g1415
ssg618
(dp3074
g807
g2223
ssg620
(dp3075
g280
g1548
ssg622
(dp3076
g836
g2292
sg1067
g2689
sg617
g1987
ssg624
(dp3077
g1058
g2675
ssg626
(dp3078
g280
g1479
ssg628
(dp3079
g672
g2073
ssg630
(dp3080
g280
g1470
ssg632
(dp3081
g707
g2119
sg693
g2104
ssg634
(dp3082
g499
g1804
ssg636
(dp3083
g827
g2262
sg405
g1741
ssg639
(dp3084
g588
g1934
ssg641
(dp3085
g857
g2368
ssg643
(dp3086
g94
g1293
ssg645
(dp3087
g339
g1628
ssg647
(dp3088
g638
g2028
sg1067
g2697
sg617
g1997
ssg649
(dp3089
sg651
(dp3090
g504
g1824
ssg654
(dp3091
g807
g2217
ssg656
(dp3092
g339
g1655
ssg658
(dp3093
g924
g2485
ssg661
(dp3094
sg663
(dp3095
g563
g1888
ssg665
(dp3096
g857
g2333
ssg667
(dp3097
g280
g1534
ssg670
(dp3098
g1115
g2737
ssg672
(dp3099
sg674
(dp3100
g238
g1437
sg951
g2580
ssg676
(dp3101
g857
g2357
ssg678
(dp3102
sg680
(dp3103
g836
g2293
sg280
g1554
sg197
g1390
ssg683
(dp3104
g807
g2221
ssg685
(dp3105
g857
g2345
ssg687
(dp3106
sg689
(dp3107
g280
g1503
ssg691
(dp3108
g857
g2351
ssg693
(dp3109
sg695
(dp3110
g280
g1504
ssg697
(dp3111
g687
g2089
ssg699
(dp3112
sg701
(dp3113
g857
g2378
sg747
g2175
ssg703
(dp3114
g52
g1231
ssg705
(dp3115
g857
g2370
ssg707
(dp3116
sg709
(dp3117
g857
g2376
ssg711
(dp3118
g60
g1252
ssg714
(dp3119
g219
g1409
sg905
g2454
sg924
g2522
sg617
g2007
sg223
g1414
sg916
g2471
sg836
g2303
sg877
g2424
ssg717
(dp3120
g1046
g2638
sg504
g1823
sg1055
g2664
ssg720
(dp3121
g857
g2385
ssg722
(dp3122
g905
g2446
sg924
g2530
sg1067
g2684
sg388
g1699
sg916
g2462
sg836
g2297
sg197
g1392
sg1115
g2732
sg280
g1513
sg566
g1896
sg398
g1729
sg932
g2552
sg827
g2267
sg693
g2096
ssg725
(dp3123
g339
g1654
ssg727
(dp3124
g857
g2408
ssg729
(dp3125
g280
g1519
ssg731
(dp3126
g924
g2483
sg1115
g2735
sg821
g2250
sg836
g2280
sg359
g1681
sg454
g1765
ssg734
(dp3127
g951
g2577
ssg737
(dp3128
g280
g1522
ssg739
(dp3129
g857
g2367
ssg741
(dp3130
g807
g2233
ssg743
(dp3131
g280
g1524
ssg745
(dp3132
g52
g1243
ssg748
(dp3133
g924
g2494
sg1115
g2747
ssg751
(dp3134
g1110
g2728
ssg754
(dp3135
g857
g2328
ssg756
(dp3136
g924
g2497
sg617
g1982
sg932
g2562
sg577
g1922
sg180
g1375
sg18
g1184
sg280
g1530
sg661
g2056
sg52
g1217
sg747
g2179
sg530
g1851
sg857
g2338
sg877
g2422
sg238
g1440
ssg759
(dp3137
sg761
(dp3138
g280
g1533
ssg763
(dp3139
g699
g2112
sg807
g2219
sg924
g2501
sg932
g2554
ssg766
(dp3140
g280
g1535
ssg768
(dp3141
g563
g1874
sg1162
g2777
sg1115
g2739
ssg770
(dp3142
g280
g1561
ssg772
(dp3143
g339
g1634
ssg774
(dp3144
g693
g2100
ssg776
(dp3145
g52
g1224
ssg778
(dp3146
g807
g2220
ssg780
(dp3147
g246
g1447
ssg782
(dp3148
g661
g2057
ssg784
(dp3149
g857
g2356
ssg786
(dp3150
g339
g1639
sg494
g1797
ssg788
(dp3151
g280
g1542
ssg790
(dp3152
g857
g2392
ssg792
(dp3153
g280
g1543
ssg794
(dp3154
g682
g2079
sg827
g2265
sg693
g2099
ssg796
(dp3155
g736
g2160
ssg798
(dp3156
g857
g2391
ssg800
(dp3157
g26
g1194
sg114
g1315
ssg803
(dp3158
g280
g1547
ssg805
(dp3159
g924
g2521
ssg808
(dp3160
g924
g2523
ssg811
(dp3161
sg813
(dp3162
g857
g2343
ssg815
(dp3163
g1115
g2733
ssg817
(dp3164
g339
g1656
ssg819
(dp3165
g246
g1449
sg916
g2464
sg313
g1602
sg893
g2439
sg1088
g2713
sg836
g2290
sg687
g2091
sg26
g1196
sg332
g1620
sg852
g2321
sg114
g1317
sg563
g1879
sg566
g1903
sg693
g2102
sg924
g2538
sg577
g1916
sg707
g2121
sg499
g1808
sg52
g1242
sg932
g2556
sg807
g2225
sg811
g2242
sg60
g1257
sg238
g1435
sg67
g1264
sg672
g2070
sg821
g2252
sg682
g2083
sg230
g1422
sg887
g2433
sg388
g1702
sg1162
g2782
ssg821
(dp3166
sg823
(dp3167
g905
g2448
ssg825
(dp3168
g836
g2300
ssg828
(dp3169
g280
g1560
ssg830
(dp3170
g857
g2324
ssg832
(dp3171
g857
g2346
ssg834
(dp3172
g733
g2152
sg916
g2466
sg1115
g2745
sg26
g1198
sg905
g2450
sg617
g1977
sg197
g1394
sg924
g2493
sg1067
g2693
sg638
g2024
sg577
g1918
sg614
g1967
sg280
g1563
sg52
g1215
sg932
g2560
sg719
g2138
sg219
g1407
sg588
g1939
sg821
g2256
sg76
g1274
sg388
g1704
sg454
g1772
ssg837
(dp3173
g1055
g2655
ssg839
(dp3174
g1055
g2656
ssg841
(dp3175
g893
g2437
ssg843
(dp3176
g614
g1960
sg719
g2129
ssg845
(dp3177
g836
g2283
sg617
g1985
ssg848
(dp3178
g238
g1431
ssg850
(dp3179
g924
g2505
ssg853
(dp3180
g924
g2484
ssg855
(dp3181
g18
g1186
sg52
g1227
ssg858
(dp3182
g857
g2355
ssg860
(dp3183
g398
g1722
sg1110
g2727
sg1055
g2666
ssg862
(dp3184
g280
g1485
ssg864
(dp3185
g280
g1571
ssg866
(dp3186
g530
g1843
ssg868
(dp3187
g280
g1550
ssg870
(dp3188
g924
g2519
ssg873
(dp3189
g280
g1572
ssg875
(dp3190
g617
g1983
ssg878
(dp3191
g857
g2354
ssg880
(dp3192
g617
g1998
ssg883
(dp3193
g857
g2390
ssg885
(dp3194
g563
g1884
ssg887
(dp3195
sg889
(dp3196
g280
g1471
ssg891
(dp3197
g841
g2315
ssg894
(dp3198
g94
g1294
ssg896
(dp3199
g617
g1980
ssg899
(dp3200
g280
g1473
ssg901
(dp3201
g597
g1947
ssg903
(dp3202
g313
g1597
ssg906
(dp3203
g280
g1477
ssg908
(dp3204
g1058
g2668
ssg910
(dp3205
g398
g1715
ssg912
(dp3206
g280
g1484
ssg914
(dp3207
g857
g2400
ssg916
(dp3208
sg918
(dp3209
g924
g2509
sg1055
g2660
sg280
g1482
sg348
g1674
ssg921
(dp3210
g588
g1931
sg699
g2109
sg617
g1990
sg747
g2170
sg577
g1914
sg180
g1364
sg836
g2274
sg52
g1229
sg94
g1286
sg530
g1838
sg857
g2360
ssg924
(dp3211
sg926
(dp3212
g280
g1483
ssg928
(dp3213
g530
g1848
ssg930
(dp3214
g924
g2532
ssg933
(dp3215
g180
g1372
ssg935
(dp3216
g951
g2575
ssg937
(dp3217
g614
g1961
sg280
g1487
sg1055
g2654
ssg939
(dp3218
g857
g2395
ssg941
(dp3219
g280
g1488
ssg943
(dp3220
g924
g2540
ssg945
(dp3221
g398
g1730
ssg947
(dp3222
g398
g1731
ssg949
(dp3223
g313
g1598
ssg952
(dp3224
g280
g1494
ssg954
(dp3225
g924
g2517
ssg957
(dp3226
g398
g1710
ssg959
(dp3227
g566
g1900
ssg961
(dp3228
g924
g2490
sg563
g1883
sg836
g2295
sg617
g1975
sg932
g2558
ssg964
(dp3229
g280
g1569
ssg966
(dp3230
g398
g1733
ssg968
(dp3231
g857
g2335
ssg970
(dp3232
g339
g1629
ssg972
(dp3233
g693
g2105
ssg974
(dp3234
g280
g1499
ssg976
(dp3235
g280
g1500
ssg978
(dp3236
g699
g2111
ssg980
(dp3237
g857
g2339
ssg982
(dp3238
g339
g1633
ssS'/'
(dp3239
g332
g1618
sg699
g2113
sg661
g2060
ssg985
(dp3240
g857
g2349
ssg987
(dp3241
g807
g2230
sg1058
g2672
sg123
g1326
ssg989
(dp3242
g1051
g2647
ssg991
(dp3243
g736
g2163
ssg993
(dp3244
g951
g2574
ssg996
(dp3245
g280
g1506
ssg998
(dp3246
g280
g1491
ssg1000
(dp3247
g313
g1600
ssg1003
(dp3248
g504
g1821
ssg1005
(dp3249
g280
g1505
ssg1007
(dp3250
g857
g2330
ssg1009
(dp3251
g1162
g2780
ssg1011
(dp3252
g614
g1968
sg348
g1670
ssg1013
(dp3253
g857
g2383
ssg1015
(dp3254
g617
g1999
ssg1017
(dp3255
g857
g2389
ssg1019
(dp3256
g530
g1842
sg52
g1240
ssg1022
(dp3257
g672
g2068
ssg1024
(dp3258
g339
g1657
ssg1026
(dp3259
g614
g1965
ssg1028
(dp3260
g398
g1723
ssg1030
(dp3261
g542
g1857
ssg1032
(dp3262
g857
g2397
ssg1034
(dp3263
g617
g1972
ssg1036
(dp3264
g530
g1849
ssg1038
(dp3265
g339
g1627
ssg1040
(dp3266
g280
g1472
sg1055
g2662
ssg1042
(dp3267
g857
g2411
ssg1044
(dp3268
g924
g2495
sg280
g1528
sg504
g1818
ssg1047
(dp3269
g857
g2348
ssg1049
(dp3270
g398
g1734
ssg1051
(dp3271
sg1053
(dp3272
g614
g1964
sg249
g1454
sg280
g1538
sg597
g1951
sg719
g2133
sg348
g1668
ssg1056
(dp3273
g339
g1637
sg924
g2507
sg123
g1331
ssg1059
(dp3274
g857
g2358
ssg1061
(dp3275
sg1063
(dp3276
g530
g1845
ssg1065
(dp3277
g857
g2363
ssg1067
(dp3278
g836
g2309
sg94
g1288
sg617
g1992
ssg1069
(dp3279
g398
g1727
ssg1071
(dp3280
g857
g2329
ssg1073
(dp3281
g339
g1645
ssg1075
(dp3282
g339
g1646
ssg1077
(dp3283
g280
g1544
ssg1079
(dp3284
g821
g2257
ssg1082
(dp3285
g280
g1575
ssg1084
(dp3286
g280
g1552
ssg1086
(dp3287
g180
g1370
ssg1088
(dp3288
sg1090
(dp3289
g388
g1701
ssg1092
(dp3290
g398
g1716
ssg1094
(dp3291
g280
g1555
ssg1096
(dp3292
g280
g1556
ssg1098
(dp3293
g339
g1658
ssg1100
(dp3294
g398
g1721
ssg1102
(dp3295
sg1104
(dp3296
g857
g2334
ssg1106
(dp3297
g313
g1596
ssg1108
(dp3298
g1046
g2633
ssg1111
(dp3299
g238
g1427
ssg1113
(dp3300
g924
g2486
ssg1116
(dp3301
g530
g1844
ssg1118
(dp3302
g1162
g2784
ssg1120
(dp3303
g272
g1466
ssg1122
(dp3304
g339
g1631
ssg1124
(dp3305
g1046
g2632
ssg1127
(dp3306
g180
g1365
ssg1129
(dp3307
g339
g1632
ssg1131
(dp3308
g661
g2049
sg52
g1221
ssg1134
(dp3309
sg1136
(dp3310
g238
g1433
sg563
g1876
sg1162
g2779
sg52
g1223
ssg1138
(dp3311
g924
g2547
ssg1141
(dp3312
g1162
g2783
ssg1143
(dp3313
g280
g1568
ssg1145
(dp3314
g563
g1890
ssg1147
(dp3315
g280
g1570
ssg1149
(dp3316
g238
g1430
ssg1152
(dp3317
g1051
g2643
ssg1154
(dp3318
g280
g1573
ssg1156
(dp3319
g1051
g2644
ssg1158
(dp3320
g280
g1551
ssg1160
(dp3321
g238
g1443
ssg1163
(dp3322
g398
g1735
ssg1165
(dp3323
sg1167
(dp3324
g857
g2406
ssg1169
(dp3325
g398
g1736
ssg1171
(dp3326
sg1173
(dp3327
g94
g1301
sg1067
g2698
sg617
g2010
sssS'adj'
p3328
g1178
sb.